SF:/home/nitro/Projects/pwf/crates/pwf-converters/src/common/utils.rs
FN:15,_RNCNvNtNtCs6byCTvXotUD_14pwf_converters6common5utils24fit_timestamp_to_iso86010B7_
FN:89,_RNvNtNtNtCs6byCTvXotUD_14pwf_converters6common5utils5testss_15test_mps_to_kph
FN:83,_RNvNtNtNtCs6byCTvXotUD_14pwf_converters6common5utils5testss_17test_meters_to_km
FN:75,_RNvNtNtNtCs6byCTvXotUD_14pwf_converters6common5utils5testss_24test_seconds_to_duration
FN:95,_RNvNtNtNtCs6byCTvXotUD_14pwf_converters6common5utils5testss_27test_semicircles_to_degrees
FN:59,_RNvNtNtNtCs6byCTvXotUD_14pwf_converters6common5utils5testss_29test_fit_timestamp_to_iso8601
FN:43,_RNvNtNtCs6byCTvXotUD_14pwf_converters6common5utils10mps_to_kph
FN:38,_RNvNtNtCs6byCTvXotUD_14pwf_converters6common5utils12meters_to_km
FN:23,_RNvNtNtCs6byCTvXotUD_14pwf_converters6common5utils19seconds_to_duration
FN:50,_RNvNtNtCs6byCTvXotUD_14pwf_converters6common5utils22semicircles_to_degrees
FN:9,_RNvNtNtCs6byCTvXotUD_14pwf_converters6common5utils24fit_timestamp_to_iso8601
FNDA:0,_RNCNvNtNtCs6byCTvXotUD_14pwf_converters6common5utils24fit_timestamp_to_iso86010B7_
FNDA:1,_RNvNtNtNtCs6byCTvXotUD_14pwf_converters6common5utils5testss_15test_mps_to_kph
FNDA:1,_RNvNtNtNtCs6byCTvXotUD_14pwf_converters6common5utils5testss_17test_meters_to_km
FNDA:1,_RNvNtNtNtCs6byCTvXotUD_14pwf_converters6common5utils5testss_24test_seconds_to_duration
FNDA:1,_RNvNtNtNtCs6byCTvXotUD_14pwf_converters6common5utils5testss_27test_semicircles_to_degrees
FNDA:1,_RNvNtNtNtCs6byCTvXotUD_14pwf_converters6common5utils5testss_29test_fit_timestamp_to_iso8601
FNDA:2,_RNvNtNtCs6byCTvXotUD_14pwf_converters6common5utils10mps_to_kph
FNDA:2,_RNvNtNtCs6byCTvXotUD_14pwf_converters6common5utils12meters_to_km
FNDA:4,_RNvNtNtCs6byCTvXotUD_14pwf_converters6common5utils19seconds_to_duration
FNDA:18,_RNvNtNtCs6byCTvXotUD_14pwf_converters6common5utils22semicircles_to_degrees
FNDA:11,_RNvNtNtCs6byCTvXotUD_14pwf_converters6common5utils24fit_timestamp_to_iso8601
FNF:11
FNH:10
DA:9,11
DA:13,11
DA:14,11
DA:15,11
DA:17,11
DA:18,11
DA:23,4
DA:24,4
DA:25,4
DA:26,4
DA:28,4
DA:29,1
DA:30,3
DA:31,1
DA:33,2
DA:35,4
DA:38,2
DA:39,2
DA:40,2
DA:43,2
DA:44,2
DA:45,2
DA:50,18
DA:51,18
DA:52,18
DA:59,1
DA:63,1
DA:64,1
DA:68,1
DA:70,1
DA:71,1
DA:72,1
DA:75,1
DA:76,1
DA:77,1
DA:78,1
DA:79,1
DA:80,1
DA:83,1
DA:84,1
DA:85,1
DA:86,1
DA:89,1
DA:90,1
DA:91,1
DA:92,1
DA:95,1
DA:97,1
DA:98,1
DA:99,1
DA:102,1
DA:103,1
DA:104,1
DA:105,1
BRF:0
BRH:0
LF:55
LH:54
end_of_record
SF:/home/nitro/Projects/pwf/crates/pwf-converters/src/error.rs
FN:205,_RNvNtNtCs6byCTvXotUD_14pwf_converters5error5testss_20test_warning_display
FN:188,_RNvNtNtCs6byCTvXotUD_14pwf_converters5error5testss_26test_conversion_result_new
FN:195,_RNvNtNtCs6byCTvXotUD_14pwf_converters5error5testss_34test_conversion_result_add_warning
FN:70,_RNvMNtCs6byCTvXotUD_14pwf_converters5errorNtB2_16ConversionResult11add_warning
FN:75,_RNvMNtCs6byCTvXotUD_14pwf_converters5errorNtB2_16ConversionResult12has_warnings
FN:62,_RNvMNtCs6byCTvXotUD_14pwf_converters5errorNtB2_16ConversionResult3new
FN:100,_RNvMs_NtCs6byCTvXotUD_14pwf_converters5errorNtB4_15TcxExportResult11add_warning
FN:105,_RNvMs_NtCs6byCTvXotUD_14pwf_converters5errorNtB4_15TcxExportResult12has_warnings
FN:92,_RNvMs_NtCs6byCTvXotUD_14pwf_converters5errorNtB4_15TcxExportResult3new
FN:151,_RNvXs0_NtCs6byCTvXotUD_14pwf_converters5errorNtB5_17ConversionWarningNtNtCs3XFJfFEDSOQ_4core3fmt7Display3fmt
FNDA:1,_RNvNtNtCs6byCTvXotUD_14pwf_converters5error5testss_20test_warning_display
FNDA:1,_RNvNtNtCs6byCTvXotUD_14pwf_converters5error5testss_26test_conversion_result_new
FNDA:1,_RNvNtNtCs6byCTvXotUD_14pwf_converters5error5testss_34test_conversion_result_add_warning
FNDA:2,_RNvMNtCs6byCTvXotUD_14pwf_converters5errorNtB2_16ConversionResult11add_warning
FNDA:3,_RNvMNtCs6byCTvXotUD_14pwf_converters5errorNtB2_16ConversionResult12has_warnings
FNDA:11,_RNvMNtCs6byCTvXotUD_14pwf_converters5errorNtB2_16ConversionResult3new
FNDA:1,_RNvMs_NtCs6byCTvXotUD_14pwf_converters5errorNtB4_15TcxExportResult11add_warning
FNDA:1,_RNvMs_NtCs6byCTvXotUD_14pwf_converters5errorNtB4_15TcxExportResult12has_warnings
FNDA:2,_RNvMs_NtCs6byCTvXotUD_14pwf_converters5errorNtB4_15TcxExportResult3new
FNDA:1,_RNvXs0_NtCs6byCTvXotUD_14pwf_converters5errorNtB5_17ConversionWarningNtNtCs3XFJfFEDSOQ_4core3fmt7Display3fmt
FNF:10
FNH:10
DA:62,11
DA:63,11
DA:64,11
DA:65,11
DA:66,11
DA:67,11
DA:70,2
DA:71,2
DA:72,2
DA:75,3
DA:76,3
DA:77,3
DA:92,2
DA:93,2
DA:94,2
DA:95,2
DA:96,2
DA:97,2
DA:100,1
DA:101,1
DA:102,1
DA:105,1
DA:106,1
DA:107,1
DA:151,1
DA:152,1
DA:154,1
DA:155,1
DA:157,1
DA:160,0
DA:161,0
DA:162,0
DA:164,0
DA:165,0
DA:166,0
DA:170,0
DA:171,0
DA:173,0
DA:174,0
DA:176,0
DA:177,0
DA:180,1
DA:188,1
DA:189,1
DA:190,1
DA:191,1
DA:192,1
DA:195,1
DA:196,1
DA:197,1
DA:198,1
DA:199,1
DA:200,1
DA:201,1
DA:202,1
DA:205,1
DA:206,1
DA:207,1
DA:208,1
DA:209,1
DA:210,1
DA:211,1
DA:214,1
BRF:0
BRH:0
LF:63
LH:51
end_of_record
SF:/home/nitro/Projects/pwf/crates/pwf-converters/src/fit/mappings.rs
FN:41,_RNvNtNtNtCs6byCTvXotUD_14pwf_converters3fit8mappings5testss_18test_map_fit_sport
FN:49,_RNvNtNtNtCs6byCTvXotUD_14pwf_converters3fit8mappings5testss_20test_map_swim_stroke
FN:9,_RNvNtNtCs6byCTvXotUD_14pwf_converters3fit8mappings13map_fit_sport
FN:23,_RNvNtNtCs6byCTvXotUD_14pwf_converters3fit8mappings15map_swim_stroke
FNDA:1,_RNvNtNtNtCs6byCTvXotUD_14pwf_converters3fit8mappings5testss_18test_map_fit_sport
FNDA:1,_RNvNtNtNtCs6byCTvXotUD_14pwf_converters3fit8mappings5testss_20test_map_swim_stroke
FNDA:4,_RNvNtNtCs6byCTvXotUD_14pwf_converters3fit8mappings13map_fit_sport
FNDA:25,_RNvNtNtCs6byCTvXotUD_14pwf_converters3fit8mappings15map_swim_stroke
FNF:4
FNH:4
DA:9,4
DA:10,4
DA:11,1
DA:12,1
DA:13,0
DA:14,1
DA:16,1
DA:18,4
DA:23,25
DA:24,25
DA:25,13
DA:26,4
DA:27,3
DA:28,2
DA:29,1
DA:30,1
DA:31,1
DA:32,0
DA:34,25
DA:41,1
DA:42,1
DA:43,1
DA:44,1
DA:45,1
DA:46,1
DA:49,1
DA:50,1
DA:51,1
DA:52,1
DA:53,1
DA:54,1
BRF:0
BRH:0
LF:31
LH:29
end_of_record
SF:/home/nitro/Projects/pwf/crates/pwf-converters/src/fit/parser.rs
FN:708,_RNCNCNCNvNtNtCs6byCTvXotUD_14pwf_converters3fit6parser21extract_swimming_data000Bb_
FN:559,_RNCNCNvNtNtCs6byCTvXotUD_14pwf_converters3fit6parser17extract_gps_route00B9_
FN:561,_RNCNCNvNtNtCs6byCTvXotUD_14pwf_converters3fit6parser17extract_gps_route0s0_0B9_
FN:562,_RNCNCNvNtNtCs6byCTvXotUD_14pwf_converters3fit6parser17extract_gps_route0s1_0B9_
FN:560,_RNCNCNvNtNtCs6byCTvXotUD_14pwf_converters3fit6parser17extract_gps_route0s_0B9_
FN:708,_RNCNCNvNtNtCs6byCTvXotUD_14pwf_converters3fit6parser21extract_swimming_data00B9_
FN:719,_RNCNCNvNtNtCs6byCTvXotUD_14pwf_converters3fit6parser21extract_swimming_data0s0_0B9_
FN:723,_RNCNCNvNtNtCs6byCTvXotUD_14pwf_converters3fit6parser21extract_swimming_data0s1_0B9_
FN:727,_RNCNCNvNtNtCs6byCTvXotUD_14pwf_converters3fit6parser21extract_swimming_data0s2_0B9_
FN:716,_RNCNCNvNtNtCs6byCTvXotUD_14pwf_converters3fit6parser21extract_swimming_data0s_0B9_
FN:426,_RNCNCNvNtNtCs6byCTvXotUD_14pwf_converters3fit6parser25convert_laps_to_exercisess0_00B9_
FN:812,_RNCNCNvNtNtCs6byCTvXotUD_14pwf_converters3fit6parser27convert_device_info_records00B9_
FN:815,_RNCNCNvNtNtCs6byCTvXotUD_14pwf_converters3fit6parser27convert_device_info_records0s0_0B9_
FN:816,_RNCNCNvNtNtCs6byCTvXotUD_14pwf_converters3fit6parser27convert_device_info_records0s1_0B9_
FN:819,_RNCNCNvNtNtCs6byCTvXotUD_14pwf_converters3fit6parser27convert_device_info_records0s2_0B9_
FN:813,_RNCNCNvNtNtCs6byCTvXotUD_14pwf_converters3fit6parser27convert_device_info_records0s_0B9_
FN:481,_RNCNvNtNtCs6byCTvXotUD_14pwf_converters3fit6parser12get_field_u80B7_
FN:495,_RNCNvNtNtCs6byCTvXotUD_14pwf_converters3fit6parser13get_field_f640B7_
FN:512,_RNCNvNtNtCs6byCTvXotUD_14pwf_converters3fit6parser13get_field_i320B7_
FN:466,_RNCNvNtNtCs6byCTvXotUD_14pwf_converters3fit6parser13get_field_u160B7_
FN:450,_RNCNvNtNtCs6byCTvXotUD_14pwf_converters3fit6parser13get_field_u320B7_
FN:535,_RNCNvNtNtCs6byCTvXotUD_14pwf_converters3fit6parser17extract_gps_route0B7_
FN:618,_RNCNvNtNtCs6byCTvXotUD_14pwf_converters3fit6parser17extract_gps_routes0_0B7_
FN:617,_RNCNvNtNtCs6byCTvXotUD_14pwf_converters3fit6parser17extract_gps_routes_0B7_
FN:317,_RNCNvNtNtCs6byCTvXotUD_14pwf_converters3fit6parser20create_sport_segment0B7_
FN:319,_RNCNvNtNtCs6byCTvXotUD_14pwf_converters3fit6parser20create_sport_segments0_0B7_
FN:325,_RNCNvNtNtCs6byCTvXotUD_14pwf_converters3fit6parser20create_sport_segments1_0B7_
FN:318,_RNCNvNtNtCs6byCTvXotUD_14pwf_converters3fit6parser20create_sport_segments_0B7_
FN:706,_RNCNvNtNtCs6byCTvXotUD_14pwf_converters3fit6parser21extract_swimming_data0B7_
FN:756,_RNCNvNtNtCs6byCTvXotUD_14pwf_converters3fit6parser21extract_swimming_datas0_0B7_
FN:750,_RNCNvNtNtCs6byCTvXotUD_14pwf_converters3fit6parser21extract_swimming_datas_0B7_
FN:350,_RNCNvNtNtCs6byCTvXotUD_14pwf_converters3fit6parser25convert_laps_to_exercises0B7_
FN:416,_RNCNvNtNtCs6byCTvXotUD_14pwf_converters3fit6parser25convert_laps_to_exercisess0_0B7_
FN:351,_RNCNvNtNtCs6byCTvXotUD_14pwf_converters3fit6parser25convert_laps_to_exercisess_0B7_
FN:787,_RNCNvNtNtCs6byCTvXotUD_14pwf_converters3fit6parser27convert_device_info_records0B7_
FN:480,_RNvNtNtCs6byCTvXotUD_14pwf_converters3fit6parser12get_field_u8
FN:494,_RNvNtNtCs6byCTvXotUD_14pwf_converters3fit6parser13get_field_f64
FN:511,_RNvNtNtCs6byCTvXotUD_14pwf_converters3fit6parser13get_field_i32
FN:465,_RNvNtNtCs6byCTvXotUD_14pwf_converters3fit6parser13get_field_u16
FN:449,_RNvNtNtCs6byCTvXotUD_14pwf_converters3fit6parser13get_field_u32
FN:132,_RNvNtNtCs6byCTvXotUD_14pwf_converters3fit6parser17detect_multisport
FN:527,_RNvNtNtCs6byCTvXotUD_14pwf_converters3fit6parser17extract_gps_route
FN:306,_RNvNtNtCs6byCTvXotUD_14pwf_converters3fit6parser20create_sport_segment
FN:671,_RNvNtNtCs6byCTvXotUD_14pwf_converters3fit6parser21extract_swimming_data
FN:342,_RNvNtNtCs6byCTvXotUD_14pwf_converters3fit6parser25convert_laps_to_exercises
FN:784,_RNvNtNtCs6byCTvXotUD_14pwf_converters3fit6parser27convert_device_info_records
FN:834,_RNvNtNtNtCs6byCTvXotUD_14pwf_converters3fit6parser5tests18create_mock_record
FN:844,_RNvNtNtNtCs6byCTvXotUD_14pwf_converters3fit6parser5testss_24test_fit_to_pwf_compiles
FN:922,_RNvNtNtNtCs6byCTvXotUD_14pwf_converters3fit6parser5testss_28test_get_field_u8_with_uint8
FN:928,_RNvNtNtNtCs6byCTvXotUD_14pwf_converters3fit6parser5testss_28test_get_field_u8_wrong_type
FN:975,_RNvNtNtNtCs6byCTvXotUD_14pwf_converters3fit6parser5testss_29test_get_field_f64_wrong_type
FN:1003,_RNvNtNtNtCs6byCTvXotUD_14pwf_converters3fit6parser5testss_29test_get_field_i32_with_sint8
FN:1018,_RNvNtNtNtCs6byCTvXotUD_14pwf_converters3fit6parser5testss_29test_get_field_i32_wrong_type
FN:902,_RNvNtNtNtCs6byCTvXotUD_14pwf_converters3fit6parser5testss_29test_get_field_u16_with_uint8
FN:908,_RNvNtNtNtCs6byCTvXotUD_14pwf_converters3fit6parser5testss_29test_get_field_u16_wrong_type
FN:874,_RNvNtNtNtCs6byCTvXotUD_14pwf_converters3fit6parser5testss_29test_get_field_u32_with_uint8
FN:880,_RNvNtNtNtCs6byCTvXotUD_14pwf_converters3fit6parser5testss_29test_get_field_u32_wrong_type
FN:969,_RNvNtNtNtCs6byCTvXotUD_14pwf_converters3fit6parser5testss_30test_get_field_f64_with_uint16
FN:962,_RNvNtNtNtCs6byCTvXotUD_14pwf_converters3fit6parser5testss_30test_get_field_f64_with_uint32
FN:997,_RNvNtNtNtCs6byCTvXotUD_14pwf_converters3fit6parser5testss_30test_get_field_i32_with_sint16
FN:988,_RNvNtNtNtCs6byCTvXotUD_14pwf_converters3fit6parser5testss_30test_get_field_i32_with_sint32
FN:896,_RNvNtNtNtCs6byCTvXotUD_14pwf_converters3fit6parser5testss_30test_get_field_u16_with_uint16
FN:867,_RNvNtNtNtCs6byCTvXotUD_14pwf_converters3fit6parser5testss_30test_get_field_u32_with_uint16
FN:858,_RNvNtNtNtCs6byCTvXotUD_14pwf_converters3fit6parser5testss_30test_get_field_u32_with_uint32
FN:1462,_RNvNtNtNtCs6byCTvXotUD_14pwf_converters3fit6parser5testss_31test_create_sport_segment_basic
FN:950,_RNvNtNtNtCs6byCTvXotUD_14pwf_converters3fit6parser5testss_31test_get_field_f64_with_float32
FN:941,_RNvNtNtNtCs6byCTvXotUD_14pwf_converters3fit6parser5testss_31test_get_field_f64_with_float64
FN:934,_RNvNtNtNtCs6byCTvXotUD_14pwf_converters3fit6parser5testss_31test_get_field_u8_missing_field
FN:1075,_RNvNtNtNtCs6byCTvXotUD_14pwf_converters3fit6parser5testss_32test_detect_multisport_triathlon
FN:981,_RNvNtNtNtCs6byCTvXotUD_14pwf_converters3fit6parser5testss_32test_get_field_f64_missing_field
FN:1024,_RNvNtNtNtCs6byCTvXotUD_14pwf_converters3fit6parser5testss_32test_get_field_i32_missing_field
FN:915,_RNvNtNtNtCs6byCTvXotUD_14pwf_converters3fit6parser5testss_32test_get_field_u16_missing_field
FN:889,_RNvNtNtNtCs6byCTvXotUD_14pwf_converters3fit6parser5testss_32test_get_field_u32_missing_field
FN:1046,_RNvNtNtNtCs6byCTvXotUD_14pwf_converters3fit6parser5testss_33test_detect_multisport_same_sport
FN:1009,_RNvNtNtNtCs6byCTvXotUD_14pwf_converters3fit6parser5testss_33test_get_field_i32_negative_value
FN:1394,_RNvNtNtNtCs6byCTvXotUD_14pwf_converters3fit6parser5testss_35test_extract_gps_route_bounding_box
FN:1572,_RNvNtNtNtCs6byCTvXotUD_14pwf_converters3fit6parser5testss_35test_extract_swimming_data_25m_pool
FN:1546,_RNvNtNtNtCs6byCTvXotUD_14pwf_converters3fit6parser5testss_35test_extract_swimming_data_50m_pool
FN:1155,_RNvNtNtNtCs6byCTvXotUD_14pwf_converters3fit6parser5testss_36test_convert_device_info_power_meter
FN:1264,_RNvNtNtNtCs6byCTvXotUD_14pwf_converters3fit6parser5testss_36test_extract_gps_route_empty_records
FN:1174,_RNvNtNtNtCs6byCTvXotUD_14pwf_converters3fit6parser5testss_37test_convert_device_info_coros_device
FN:1088,_RNvNtNtNtCs6byCTvXotUD_14pwf_converters3fit6parser5testss_37test_convert_device_info_garmin_watch
FN:1040,_RNvNtNtNtCs6byCTvXotUD_14pwf_converters3fit6parser5testss_37test_detect_multisport_empty_sessions
FN:1031,_RNvNtNtNtCs6byCTvXotUD_14pwf_converters3fit6parser5testss_37test_detect_multisport_single_session
FN:1304,_RNvNtNtNtCs6byCTvXotUD_14pwf_converters3fit6parser5testss_37test_extract_gps_route_valid_position
FN:1800,_RNvNtNtNtCs6byCTvXotUD_14pwf_converters3fit6parser5testss_37test_extract_swimming_data_no_strokes
FN:1593,_RNvNtNtNtCs6byCTvXotUD_14pwf_converters3fit6parser5testss_37test_extract_swimming_data_yards_pool
FN:1115,_RNvNtNtNtCs6byCTvXotUD_14pwf_converters3fit6parser5testss_38test_convert_device_info_bike_computer
FN:1821,_RNvNtNtNtCs6byCTvXotUD_14pwf_converters3fit6parser5testss_38test_convert_laps_to_exercises_no_laps
FN:1064,_RNvNtNtNtCs6byCTvXotUD_14pwf_converters3fit6parser5testss_38test_detect_multisport_with_transition
FN:1886,_RNvNtNtNtCs6byCTvXotUD_14pwf_converters3fit6parser5testss_39test_convert_laps_to_exercises_swimming
FN:1055,_RNvNtNtNtCs6byCTvXotUD_14pwf_converters3fit6parser5testss_39test_detect_multisport_different_sports
FN:1496,_RNvNtNtNtCs6byCTvXotUD_14pwf_converters3fit6parser5testss_40test_create_sport_segment_with_exercises
FN:1539,_RNvNtNtNtCs6byCTvXotUD_14pwf_converters3fit6parser5testss_40test_extract_swimming_data_empty_lengths
FN:1659,_RNvNtNtNtCs6byCTvXotUD_14pwf_converters3fit6parser5testss_40test_extract_swimming_data_mixed_strokes
FN:1224,_RNvNtNtNtCs6byCTvXotUD_14pwf_converters3fit6parser5testss_41test_convert_device_info_multiple_devices
FN:1343,_RNvNtNtNtCs6byCTvXotUD_14pwf_converters3fit6parser5testss_41test_extract_gps_route_elevation_tracking
FN:1280,_RNvNtNtNtCs6byCTvXotUD_14pwf_converters3fit6parser5testss_42test_extract_gps_route_invalid_coordinates
FN:1136,_RNvNtNtNtCs6byCTvXotUD_14pwf_converters3fit6parser5testss_43test_convert_device_info_heart_rate_monitor
FN:1688,_RNvNtNtNtCs6byCTvXotUD_14pwf_converters3fit6parser5testss_43test_extract_swimming_data_all_stroke_types
FN:1734,_RNvNtNtNtCs6byCTvXotUD_14pwf_converters3fit6parser5testss_43test_extract_swimming_data_missing_duration
FN:1612,_RNvNtNtNtCs6byCTvXotUD_14pwf_converters3fit6parser5testss_43test_extract_swimming_data_multiple_lengths
FN:1210,_RNvNtNtNtCs6byCTvXotUD_14pwf_converters3fit6parser5testss_44test_convert_device_info_unknown_device_type
FN:1247,_RNvNtNtNtCs6byCTvXotUD_14pwf_converters3fit6parser5testss_44test_convert_device_info_with_operating_time
FN:1846,_RNvNtNtNtCs6byCTvXotUD_14pwf_converters3fit6parser5testss_44test_convert_laps_to_exercises_multiple_laps
FN:1781,_RNvNtNtNtCs6byCTvXotUD_14pwf_converters3fit6parser5testss_44test_extract_swimming_data_swolf_calculation
FN:1192,_RNvNtNtNtCs6byCTvXotUD_14pwf_converters3fit6parser5testss_45test_convert_device_info_unknown_manufacturer
FN:1434,_RNvNtNtNtCs6byCTvXotUD_14pwf_converters3fit6parser5testss_45test_extract_gps_route_with_power_and_cadence
FN:1719,_RNvNtNtNtCs6byCTvXotUD_14pwf_converters3fit6parser5testss_46test_extract_swimming_data_missing_pool_length
FN:1763,_RNvNtNtNtCs6byCTvXotUD_14pwf_converters3fit6parser5testss_47test_extract_swimming_data_with_uint32_duration
FN:24,_RINvNtNtCs6byCTvXotUD_14pwf_converters3fit6parser10fit_to_pwfpEB6_
FN:163,_RNCNvNtNtCs6byCTvXotUD_14pwf_converters3fit6parser26convert_session_to_workout0B7_
FN:171,_RNCNvNtNtCs6byCTvXotUD_14pwf_converters3fit6parser26convert_session_to_workouts0_0B7_
FN:174,_RNCNvNtNtCs6byCTvXotUD_14pwf_converters3fit6parser26convert_session_to_workouts1_0B7_
FN:164,_RNCNvNtNtCs6byCTvXotUD_14pwf_converters3fit6parser26convert_session_to_workouts_0B7_
FN:152,_RNvNtNtCs6byCTvXotUD_14pwf_converters3fit6parser26convert_session_to_workout
FNDA:0,_RNCNCNCNvNtNtCs6byCTvXotUD_14pwf_converters3fit6parser21extract_swimming_data000Bb_
FNDA:0,_RNCNCNvNtNtCs6byCTvXotUD_14pwf_converters3fit6parser17extract_gps_route00B9_
FNDA:1,_RNCNCNvNtNtCs6byCTvXotUD_14pwf_converters3fit6parser17extract_gps_route0s0_0B9_
FNDA:1,_RNCNCNvNtNtCs6byCTvXotUD_14pwf_converters3fit6parser17extract_gps_route0s1_0B9_
FNDA:1,_RNCNCNvNtNtCs6byCTvXotUD_14pwf_converters3fit6parser17extract_gps_route0s_0B9_
FNDA:1,_RNCNCNvNtNtCs6byCTvXotUD_14pwf_converters3fit6parser21extract_swimming_data00B9_
FNDA:19,_RNCNCNvNtNtCs6byCTvXotUD_14pwf_converters3fit6parser21extract_swimming_data0s0_0B9_
FNDA:4,_RNCNCNvNtNtCs6byCTvXotUD_14pwf_converters3fit6parser21extract_swimming_data0s1_0B9_
FNDA:21,_RNCNCNvNtNtCs6byCTvXotUD_14pwf_converters3fit6parser21extract_swimming_data0s2_0B9_
FNDA:19,_RNCNCNvNtNtCs6byCTvXotUD_14pwf_converters3fit6parser21extract_swimming_data0s_0B9_
FNDA:1,_RNCNCNvNtNtCs6byCTvXotUD_14pwf_converters3fit6parser25convert_laps_to_exercisess0_00B9_
FNDA:1,_RNCNCNvNtNtCs6byCTvXotUD_14pwf_converters3fit6parser27convert_device_info_records00B9_
FNDA:1,_RNCNCNvNtNtCs6byCTvXotUD_14pwf_converters3fit6parser27convert_device_info_records0s0_0B9_
FNDA:1,_RNCNCNvNtNtCs6byCTvXotUD_14pwf_converters3fit6parser27convert_device_info_records0s1_0B9_
FNDA:1,_RNCNCNvNtNtCs6byCTvXotUD_14pwf_converters3fit6parser27convert_device_info_records0s2_0B9_
FNDA:1,_RNCNCNvNtNtCs6byCTvXotUD_14pwf_converters3fit6parser27convert_device_info_records0s_0B9_
FNDA:292,_RNCNvNtNtCs6byCTvXotUD_14pwf_converters3fit6parser12get_field_u80B7_
FNDA:171,_RNCNvNtNtCs6byCTvXotUD_14pwf_converters3fit6parser13get_field_f640B7_
FNDA:29,_RNCNvNtNtCs6byCTvXotUD_14pwf_converters3fit6parser13get_field_i320B7_
FNDA:205,_RNCNvNtNtCs6byCTvXotUD_14pwf_converters3fit6parser13get_field_u160B7_
FNDA:265,_RNCNvNtNtCs6byCTvXotUD_14pwf_converters3fit6parser13get_field_u320B7_
FNDA:8,_RNCNvNtNtCs6byCTvXotUD_14pwf_converters3fit6parser17extract_gps_route0B7_
FNDA:0,_RNCNvNtNtCs6byCTvXotUD_14pwf_converters3fit6parser17extract_gps_routes0_0B7_
FNDA:4,_RNCNvNtNtCs6byCTvXotUD_14pwf_converters3fit6parser17extract_gps_routes_0B7_
FNDA:0,_RNCNvNtNtCs6byCTvXotUD_14pwf_converters3fit6parser20create_sport_segment0B7_
FNDA:0,_RNCNvNtNtCs6byCTvXotUD_14pwf_converters3fit6parser20create_sport_segments0_0B7_
FNDA:2,_RNCNvNtNtCs6byCTvXotUD_14pwf_converters3fit6parser20create_sport_segments1_0B7_
FNDA:2,_RNCNvNtNtCs6byCTvXotUD_14pwf_converters3fit6parser20create_sport_segments_0B7_
FNDA:22,_RNCNvNtNtCs6byCTvXotUD_14pwf_converters3fit6parser21extract_swimming_data0B7_
FNDA:21,_RNCNvNtNtCs6byCTvXotUD_14pwf_converters3fit6parser21extract_swimming_datas0_0B7_
FNDA:21,_RNCNvNtNtCs6byCTvXotUD_14pwf_converters3fit6parser21extract_swimming_datas_0B7_
FNDA:0,_RNCNvNtNtCs6byCTvXotUD_14pwf_converters3fit6parser25convert_laps_to_exercises0B7_
FNDA:3,_RNCNvNtNtCs6byCTvXotUD_14pwf_converters3fit6parser25convert_laps_to_exercisess0_0B7_
FNDA:0,_RNCNvNtNtCs6byCTvXotUD_14pwf_converters3fit6parser25convert_laps_to_exercisess_0B7_
FNDA:10,_RNCNvNtNtCs6byCTvXotUD_14pwf_converters3fit6parser27convert_device_info_records0B7_
FNDA:104,_RNvNtNtCs6byCTvXotUD_14pwf_converters3fit6parser12get_field_u8
FNDA:75,_RNvNtNtCs6byCTvXotUD_14pwf_converters3fit6parser13get_field_f64
FNDA:22,_RNvNtNtCs6byCTvXotUD_14pwf_converters3fit6parser13get_field_i32
FNDA:66,_RNvNtNtCs6byCTvXotUD_14pwf_converters3fit6parser13get_field_u16
FNDA:87,_RNvNtNtCs6byCTvXotUD_14pwf_converters3fit6parser13get_field_u32
FNDA:6,_RNvNtNtCs6byCTvXotUD_14pwf_converters3fit6parser17detect_multisport
FNDA:6,_RNvNtNtCs6byCTvXotUD_14pwf_converters3fit6parser17extract_gps_route
FNDA:2,_RNvNtNtCs6byCTvXotUD_14pwf_converters3fit6parser20create_sport_segment
FNDA:19,_RNvNtNtCs6byCTvXotUD_14pwf_converters3fit6parser21extract_swimming_data
FNDA:3,_RNvNtNtCs6byCTvXotUD_14pwf_converters3fit6parser25convert_laps_to_exercises
FNDA:9,_RNvNtNtCs6byCTvXotUD_14pwf_converters3fit6parser27convert_device_info_records
FNDA:92,_RNvNtNtNtCs6byCTvXotUD_14pwf_converters3fit6parser5tests18create_mock_record
FNDA:1,_RNvNtNtNtCs6byCTvXotUD_14pwf_converters3fit6parser5testss_24test_fit_to_pwf_compiles
FNDA:1,_RNvNtNtNtCs6byCTvXotUD_14pwf_converters3fit6parser5testss_28test_get_field_u8_with_uint8
FNDA:1,_RNvNtNtNtCs6byCTvXotUD_14pwf_converters3fit6parser5testss_28test_get_field_u8_wrong_type
FNDA:1,_RNvNtNtNtCs6byCTvXotUD_14pwf_converters3fit6parser5testss_29test_get_field_f64_wrong_type
FNDA:1,_RNvNtNtNtCs6byCTvXotUD_14pwf_converters3fit6parser5testss_29test_get_field_i32_with_sint8
FNDA:1,_RNvNtNtNtCs6byCTvXotUD_14pwf_converters3fit6parser5testss_29test_get_field_i32_wrong_type
FNDA:1,_RNvNtNtNtCs6byCTvXotUD_14pwf_converters3fit6parser5testss_29test_get_field_u16_with_uint8
FNDA:1,_RNvNtNtNtCs6byCTvXotUD_14pwf_converters3fit6parser5testss_29test_get_field_u16_wrong_type
FNDA:1,_RNvNtNtNtCs6byCTvXotUD_14pwf_converters3fit6parser5testss_29test_get_field_u32_with_uint8
FNDA:1,_RNvNtNtNtCs6byCTvXotUD_14pwf_converters3fit6parser5testss_29test_get_field_u32_wrong_type
FNDA:1,_RNvNtNtNtCs6byCTvXotUD_14pwf_converters3fit6parser5testss_30test_get_field_f64_with_uint16
FNDA:1,_RNvNtNtNtCs6byCTvXotUD_14pwf_converters3fit6parser5testss_30test_get_field_f64_with_uint32
FNDA:1,_RNvNtNtNtCs6byCTvXotUD_14pwf_converters3fit6parser5testss_30test_get_field_i32_with_sint16
FNDA:1,_RNvNtNtNtCs6byCTvXotUD_14pwf_converters3fit6parser5testss_30test_get_field_i32_with_sint32
FNDA:1,_RNvNtNtNtCs6byCTvXotUD_14pwf_converters3fit6parser5testss_30test_get_field_u16_with_uint16
FNDA:1,_RNvNtNtNtCs6byCTvXotUD_14pwf_converters3fit6parser5testss_30test_get_field_u32_with_uint16
FNDA:1,_RNvNtNtNtCs6byCTvXotUD_14pwf_converters3fit6parser5testss_30test_get_field_u32_with_uint32
FNDA:1,_RNvNtNtNtCs6byCTvXotUD_14pwf_converters3fit6parser5testss_31test_create_sport_segment_basic
FNDA:1,_RNvNtNtNtCs6byCTvXotUD_14pwf_converters3fit6parser5testss_31test_get_field_f64_with_float32
FNDA:1,_RNvNtNtNtCs6byCTvXotUD_14pwf_converters3fit6parser5testss_31test_get_field_f64_with_float64
FNDA:1,_RNvNtNtNtCs6byCTvXotUD_14pwf_converters3fit6parser5testss_31test_get_field_u8_missing_field
FNDA:1,_RNvNtNtNtCs6byCTvXotUD_14pwf_converters3fit6parser5testss_32test_detect_multisport_triathlon
FNDA:1,_RNvNtNtNtCs6byCTvXotUD_14pwf_converters3fit6parser5testss_32test_get_field_f64_missing_field
FNDA:1,_RNvNtNtNtCs6byCTvXotUD_14pwf_converters3fit6parser5testss_32test_get_field_i32_missing_field
FNDA:1,_RNvNtNtNtCs6byCTvXotUD_14pwf_converters3fit6parser5testss_32test_get_field_u16_missing_field
FNDA:1,_RNvNtNtNtCs6byCTvXotUD_14pwf_converters3fit6parser5testss_32test_get_field_u32_missing_field
FNDA:1,_RNvNtNtNtCs6byCTvXotUD_14pwf_converters3fit6parser5testss_33test_detect_multisport_same_sport
FNDA:1,_RNvNtNtNtCs6byCTvXotUD_14pwf_converters3fit6parser5testss_33test_get_field_i32_negative_value
FNDA:1,_RNvNtNtNtCs6byCTvXotUD_14pwf_converters3fit6parser5testss_35test_extract_gps_route_bounding_box
FNDA:1,_RNvNtNtNtCs6byCTvXotUD_14pwf_converters3fit6parser5testss_35test_extract_swimming_data_25m_pool
FNDA:1,_RNvNtNtNtCs6byCTvXotUD_14pwf_converters3fit6parser5testss_35test_extract_swimming_data_50m_pool
FNDA:1,_RNvNtNtNtCs6byCTvXotUD_14pwf_converters3fit6parser5testss_36test_convert_device_info_power_meter
FNDA:1,_RNvNtNtNtCs6byCTvXotUD_14pwf_converters3fit6parser5testss_36test_extract_gps_route_empty_records
FNDA:1,_RNvNtNtNtCs6byCTvXotUD_14pwf_converters3fit6parser5testss_37test_convert_device_info_coros_device
FNDA:1,_RNvNtNtNtCs6byCTvXotUD_14pwf_converters3fit6parser5testss_37test_convert_device_info_garmin_watch
FNDA:1,_RNvNtNtNtCs6byCTvXotUD_14pwf_converters3fit6parser5testss_37test_detect_multisport_empty_sessions
FNDA:1,_RNvNtNtNtCs6byCTvXotUD_14pwf_converters3fit6parser5testss_37test_detect_multisport_single_session
FNDA:1,_RNvNtNtNtCs6byCTvXotUD_14pwf_converters3fit6parser5testss_37test_extract_gps_route_valid_position
FNDA:1,_RNvNtNtNtCs6byCTvXotUD_14pwf_converters3fit6parser5testss_37test_extract_swimming_data_no_strokes
FNDA:1,_RNvNtNtNtCs6byCTvXotUD_14pwf_converters3fit6parser5testss_37test_extract_swimming_data_yards_pool
FNDA:1,_RNvNtNtNtCs6byCTvXotUD_14pwf_converters3fit6parser5testss_38test_convert_device_info_bike_computer
FNDA:1,_RNvNtNtNtCs6byCTvXotUD_14pwf_converters3fit6parser5testss_38test_convert_laps_to_exercises_no_laps
FNDA:1,_RNvNtNtNtCs6byCTvXotUD_14pwf_converters3fit6parser5testss_38test_detect_multisport_with_transition
FNDA:1,_RNvNtNtNtCs6byCTvXotUD_14pwf_converters3fit6parser5testss_39test_convert_laps_to_exercises_swimming
FNDA:1,_RNvNtNtNtCs6byCTvXotUD_14pwf_converters3fit6parser5testss_39test_detect_multisport_different_sports
FNDA:1,_RNvNtNtNtCs6byCTvXotUD_14pwf_converters3fit6parser5testss_40test_create_sport_segment_with_exercises
FNDA:1,_RNvNtNtNtCs6byCTvXotUD_14pwf_converters3fit6parser5testss_40test_extract_swimming_data_empty_lengths
FNDA:1,_RNvNtNtNtCs6byCTvXotUD_14pwf_converters3fit6parser5testss_40test_extract_swimming_data_mixed_strokes
FNDA:1,_RNvNtNtNtCs6byCTvXotUD_14pwf_converters3fit6parser5testss_41test_convert_device_info_multiple_devices
FNDA:1,_RNvNtNtNtCs6byCTvXotUD_14pwf_converters3fit6parser5testss_41test_extract_gps_route_elevation_tracking
FNDA:1,_RNvNtNtNtCs6byCTvXotUD_14pwf_converters3fit6parser5testss_42test_extract_gps_route_invalid_coordinates
FNDA:1,_RNvNtNtNtCs6byCTvXotUD_14pwf_converters3fit6parser5testss_43test_convert_device_info_heart_rate_monitor
FNDA:1,_RNvNtNtNtCs6byCTvXotUD_14pwf_converters3fit6parser5testss_43test_extract_swimming_data_all_stroke_types
FNDA:1,_RNvNtNtNtCs6byCTvXotUD_14pwf_converters3fit6parser5testss_43test_extract_swimming_data_missing_duration
FNDA:1,_RNvNtNtNtCs6byCTvXotUD_14pwf_converters3fit6parser5testss_43test_extract_swimming_data_multiple_lengths
FNDA:1,_RNvNtNtNtCs6byCTvXotUD_14pwf_converters3fit6parser5testss_44test_convert_device_info_unknown_device_type
FNDA:1,_RNvNtNtNtCs6byCTvXotUD_14pwf_converters3fit6parser5testss_44test_convert_device_info_with_operating_time
FNDA:1,_RNvNtNtNtCs6byCTvXotUD_14pwf_converters3fit6parser5testss_44test_convert_laps_to_exercises_multiple_laps
FNDA:1,_RNvNtNtNtCs6byCTvXotUD_14pwf_converters3fit6parser5testss_44test_extract_swimming_data_swolf_calculation
FNDA:1,_RNvNtNtNtCs6byCTvXotUD_14pwf_converters3fit6parser5testss_45test_convert_device_info_unknown_manufacturer
FNDA:1,_RNvNtNtNtCs6byCTvXotUD_14pwf_converters3fit6parser5testss_45test_extract_gps_route_with_power_and_cadence
FNDA:1,_RNvNtNtNtCs6byCTvXotUD_14pwf_converters3fit6parser5testss_46test_extract_swimming_data_missing_pool_length
FNDA:1,_RNvNtNtNtCs6byCTvXotUD_14pwf_converters3fit6parser5testss_47test_extract_swimming_data_with_uint32_duration
FNDA:0,_RINvNtNtCs6byCTvXotUD_14pwf_converters3fit6parser10fit_to_pwfpEB6_
FNDA:0,_RNCNvNtNtCs6byCTvXotUD_14pwf_converters3fit6parser26convert_session_to_workout0B7_
FNDA:0,_RNCNvNtNtCs6byCTvXotUD_14pwf_converters3fit6parser26convert_session_to_workouts0_0B7_
FNDA:0,_RNCNvNtNtCs6byCTvXotUD_14pwf_converters3fit6parser26convert_session_to_workouts1_0B7_
FNDA:0,_RNCNvNtNtCs6byCTvXotUD_14pwf_converters3fit6parser26convert_session_to_workouts_0B7_
FNDA:0,_RNvNtNtCs6byCTvXotUD_14pwf_converters3fit6parser26convert_session_to_workout
FNF:116
FNH:103
DA:24,0
DA:25,0
DA:26,0
DA:27,0
DA:29,0
DA:30,0
DA:33,0
DA:35,0
DA:38,0
DA:39,0
DA:40,0
DA:41,0
DA:42,0
DA:44,0
DA:45,0
DA:46,0
DA:47,0
DA:48,0
DA:49,0
DA:50,0
DA:51,0
DA:56,0
DA:57,0
DA:58,0
DA:59,0
DA:61,0
DA:62,0
DA:63,0
DA:64,0
DA:65,0
DA:66,0
DA:67,0
DA:68,0
DA:69,0
DA:70,0
DA:71,0
DA:72,0
DA:73,0
DA:74,0
DA:75,0
DA:76,0
DA:77,0
DA:80,0
DA:83,0
DA:86,0
DA:87,0
DA:88,0
DA:89,0
DA:90,0
DA:91,0
DA:92,0
DA:93,0
DA:94,0
DA:95,0
DA:96,0
DA:97,0
DA:98,0
DA:99,0
DA:100,0
DA:101,0
DA:102,0
DA:107,0
DA:108,0
DA:109,0
DA:110,0
DA:111,0
DA:112,0
DA:113,0
DA:114,0
DA:115,0
DA:116,0
DA:117,0
DA:118,0
DA:119,0
DA:120,0
DA:121,0
DA:122,0
DA:123,0
DA:126,0
DA:128,0
DA:129,0
DA:132,6
DA:133,6
DA:134,2
DA:135,4
DA:138,4
DA:139,16
DA:140,12
DA:142,12
DA:143,9
DA:144,9
DA:145,0
DA:148,4
DA:149,6
DA:152,0
DA:153,0
DA:154,0
DA:155,0
DA:156,0
DA:157,0
DA:158,0
DA:159,0
DA:160,0
DA:162,0
DA:163,0
DA:164,0
DA:166,0
DA:167,0
DA:170,0
DA:171,0
DA:174,0
DA:175,0
DA:176,0
DA:177,0
DA:180,0
DA:181,0
DA:182,0
DA:185,0
DA:187,0
DA:188,0
DA:189,0
DA:190,0
DA:191,0
DA:192,0
DA:193,0
DA:194,0
DA:195,0
DA:196,0
DA:197,0
DA:198,0
DA:199,0
DA:200,0
DA:201,0
DA:202,0
DA:203,0
DA:204,0
DA:205,0
DA:206,0
DA:207,0
DA:210,0
DA:211,0
DA:213,0
DA:214,0
DA:215,0
DA:216,0
DA:217,0
DA:218,0
DA:219,0
DA:220,0
DA:221,0
DA:222,0
DA:223,0
DA:224,0
DA:225,0
DA:226,0
DA:227,0
DA:228,0
DA:229,0
DA:230,0
DA:231,0
DA:232,0
DA:233,0
DA:234,0
DA:235,0
DA:236,0
DA:238,0
DA:239,0
DA:240,0
DA:243,0
DA:244,0
DA:246,0
DA:247,0
DA:248,0
DA:249,0
DA:250,0
DA:251,0
DA:252,0
DA:253,0
DA:254,0
DA:255,0
DA:256,0
DA:257,0
DA:259,0
DA:260,0
DA:261,0
DA:264,0
DA:265,0
DA:266,0
DA:267,0
DA:270,0
DA:273,0
DA:274,0
DA:275,0
DA:276,0
DA:277,0
DA:278,0
DA:279,0
DA:280,0
DA:281,0
DA:282,0
DA:284,0
DA:287,0
DA:288,0
DA:289,0
DA:290,0
DA:291,0
DA:292,0
DA:293,0
DA:294,0
DA:295,0
DA:296,0
DA:297,0
DA:298,0
DA:299,0
DA:300,0
DA:301,0
DA:302,0
DA:303,0
DA:306,2
DA:307,2
DA:308,2
DA:309,2
DA:310,2
DA:311,2
DA:312,2
DA:313,2
DA:314,2
DA:316,2
DA:317,2
DA:318,2
DA:319,2
DA:322,2
DA:325,2
DA:327,2
DA:328,2
DA:329,2
DA:330,2
DA:331,2
DA:332,2
DA:333,2
DA:334,2
DA:335,2
DA:336,2
DA:337,2
DA:338,2
DA:339,2
DA:342,3
DA:343,3
DA:344,3
DA:345,3
DA:346,3
DA:347,3
DA:349,3
DA:350,3
DA:351,3
DA:354,3
DA:355,3
DA:358,3
DA:359,1
DA:360,1
DA:362,0
DA:365,2
DA:372,3
DA:374,1
DA:375,1
DA:376,1
DA:378,1
DA:379,1
DA:380,1
DA:381,1
DA:382,1
DA:383,1
DA:384,1
DA:385,1
DA:386,1
DA:387,1
DA:388,1
DA:389,1
DA:390,1
DA:391,1
DA:392,1
DA:393,1
DA:394,1
DA:395,1
DA:396,1
DA:397,1
DA:398,1
DA:399,1
DA:400,1
DA:401,1
DA:402,2
DA:405,2
DA:409,2
DA:410,2
DA:411,2
DA:412,2
DA:413,2
DA:414,2
DA:415,2
DA:416,3
DA:418,3
DA:421,3
DA:422,3
DA:423,3
DA:424,3
DA:425,3
DA:426,3
DA:427,3
DA:428,3
DA:429,3
DA:430,3
DA:431,3
DA:432,3
DA:433,3
DA:434,3
DA:435,3
DA:437,3
DA:438,2
DA:439,2
DA:440,2
DA:441,2
DA:444,2
DA:445,2
DA:446,3
DA:449,87
DA:450,265
DA:451,265
DA:452,28
DA:453,25
DA:454,1
DA:455,1
DA:456,1
DA:459,237
DA:461,265
DA:462,87
DA:465,66
DA:466,205
DA:467,205
DA:468,34
DA:469,32
DA:470,1
DA:471,1
DA:474,171
DA:476,205
DA:477,66
DA:480,104
DA:481,292
DA:482,292
DA:483,57
DA:484,56
DA:485,1
DA:488,235
DA:490,292
DA:491,104
DA:494,75
DA:495,171
DA:496,171
DA:497,56
DA:498,51
DA:499,1
DA:500,2
DA:501,1
DA:502,1
DA:505,115
DA:507,171
DA:508,75
DA:511,22
DA:512,29
DA:513,29
DA:514,21
DA:515,18
DA:516,1
DA:517,1
DA:518,1
DA:521,8
DA:523,29
DA:524,22
DA:527,6
DA:528,6
DA:529,6
DA:530,6
DA:531,6
DA:533,6
DA:534,6
DA:535,8
DA:537,8
DA:538,8
DA:541,8
DA:542,8
DA:545,8
DA:546,1
DA:547,7
DA:550,7
DA:553,7
DA:554,7
DA:555,7
DA:556,7
DA:557,7
DA:558,7
DA:559,7
DA:560,7
DA:561,7
DA:562,7
DA:563,7
DA:565,8
DA:566,6
DA:569,6
DA:570,2
DA:571,4
DA:574,4
DA:575,4
DA:576,4
DA:577,4
DA:578,4
DA:579,4
DA:580,4
DA:581,4
DA:582,4
DA:583,4
DA:585,11
DA:587,7
DA:588,4
DA:589,4
DA:592,4
DA:593,2
DA:594,2
DA:595,1
DA:596,1
DA:597,1
DA:598,1
DA:599,2
DA:600,4
DA:601,3
DA:604,7
DA:605,7
DA:606,7
DA:607,7
DA:611,4
DA:612,3
DA:613,3
DA:616,4
DA:617,4
DA:618,4
DA:621,4
DA:622,4
DA:623,4
DA:624,4
DA:625,1
DA:627,3
DA:629,4
DA:630,1
DA:632,3
DA:634,4
DA:635,2
DA:637,2
DA:639,4
DA:640,2
DA:642,2
DA:644,4
DA:645,4
DA:647,0
DA:649,4
DA:650,4
DA:652,0
DA:654,4
DA:655,4
DA:657,0
DA:659,4
DA:660,4
DA:662,0
DA:664,4
DA:665,4
DA:666,4
DA:668,6
DA:671,19
DA:672,19
DA:673,19
DA:674,19
DA:677,19
DA:678,1
DA:679,18
DA:682,18
DA:683,18
DA:686,17
DA:687,15
DA:688,2
DA:689,1
DA:691,1
DA:694,17
DA:695,17
DA:696,17
DA:697,17
DA:699,0
DA:700,0
DA:703,17
DA:704,17
DA:705,17
DA:706,22
DA:707,22
DA:708,22
DA:711,21
DA:712,21
DA:713,21
DA:716,21
DA:719,21
DA:722,21
DA:723,21
DA:726,21
DA:727,21
DA:728,21
DA:730,21
DA:731,21
DA:732,21
DA:733,21
DA:734,21
DA:735,21
DA:736,21
DA:737,21
DA:738,21
DA:739,22
DA:740,17
DA:742,17
DA:743,0
DA:744,17
DA:747,17
DA:748,17
DA:749,17
DA:750,21
DA:751,17
DA:754,17
DA:755,17
DA:756,21
DA:758,16
DA:760,1
DA:764,17
DA:765,17
DA:766,15
DA:768,2
DA:771,17
DA:772,17
DA:773,17
DA:774,17
DA:775,17
DA:776,17
DA:777,17
DA:778,17
DA:780,17
DA:781,19
DA:784,9
DA:785,9
DA:786,9
DA:787,10
DA:790,10
DA:791,5
DA:792,1
DA:793,2
DA:794,1
DA:795,1
DA:799,9
DA:800,3
DA:801,2
DA:802,1
DA:803,1
DA:804,1
DA:805,1
DA:809,9
DA:810,9
DA:811,9
DA:812,9
DA:813,9
DA:814,9
DA:815,9
DA:816,9
DA:817,9
DA:818,9
DA:819,9
DA:820,9
DA:821,9
DA:823,10
DA:824,9
DA:825,9
DA:834,92
DA:835,92
DA:836,211
DA:837,211
DA:838,211
DA:839,211
DA:840,92
DA:841,92
DA:844,1
DA:850,1
DA:851,1
DA:854,1
DA:858,1
DA:859,1
DA:860,1
DA:861,1
DA:863,1
DA:864,1
DA:867,1
DA:868,1
DA:869,1
DA:870,1
DA:871,1
DA:874,1
DA:875,1
DA:876,1
DA:877,1
DA:880,1
DA:881,1
DA:882,1
DA:883,1
DA:885,1
DA:886,1
DA:889,1
DA:890,1
DA:891,1
DA:892,1
DA:896,1
DA:897,1
DA:898,1
DA:899,1
DA:902,1
DA:903,1
DA:904,1
DA:905,1
DA:908,1
DA:909,1
DA:910,1
DA:911,1
DA:912,1
DA:915,1
DA:916,1
DA:917,1
DA:918,1
DA:922,1
DA:923,1
DA:924,1
DA:925,1
DA:928,1
DA:929,1
DA:930,1
DA:931,1
DA:934,1
DA:935,1
DA:936,1
DA:937,1
DA:941,1
DA:942,1
DA:943,1
DA:944,1
DA:946,1
DA:947,1
DA:950,1
DA:951,1
DA:952,1
DA:953,1
DA:956,1
DA:957,1
DA:958,1
DA:959,1
DA:962,1
DA:963,1
DA:964,1
DA:965,1
DA:966,1
DA:969,1
DA:970,1
DA:971,1
DA:972,1
DA:975,1
DA:976,1
DA:977,1
DA:978,1
DA:981,1
DA:982,1
DA:983,1
DA:984,1
DA:988,1
DA:989,1
DA:990,1
DA:991,1
DA:993,1
DA:994,1
DA:997,1
DA:998,1
DA:999,1
DA:1000,1
DA:1003,1
DA:1004,1
DA:1005,1
DA:1006,1
DA:1009,1
DA:1010,1
DA:1011,1
DA:1012,1
DA:1014,1
DA:1015,1
DA:1018,1
DA:1019,1
DA:1020,1
DA:1021,1
DA:1024,1
DA:1025,1
DA:1026,1
DA:1027,1
DA:1031,1
DA:1032,1
DA:1033,1
DA:1034,1
DA:1036,1
DA:1037,1
DA:1040,1
DA:1041,1
DA:1042,1
DA:1043,1
DA:1046,1
DA:1047,1
DA:1048,1
DA:1049,1
DA:1051,1
DA:1052,1
DA:1055,1
DA:1056,1
DA:1057,1
DA:1058,1
DA:1060,1
DA:1061,1
DA:1064,1
DA:1066,1
DA:1067,1
DA:1068,1
DA:1069,1
DA:1071,1
DA:1072,1
DA:1075,1
DA:1076,1
DA:1077,1
DA:1078,1
DA:1079,1
DA:1080,1
DA:1081,1
DA:1083,1
DA:1084,1
DA:1088,1
DA:1089,1
DA:1090,1
DA:1091,1
DA:1092,1
DA:1093,1
DA:1094,1
DA:1095,1
DA:1096,1
DA:1097,1
DA:1101,1
DA:1102,1
DA:1103,1
DA:1104,1
DA:1105,1
DA:1108,1
DA:1109,1
DA:1110,1
DA:1111,1
DA:1112,1
DA:1115,1
DA:1116,1
DA:1117,1
DA:1118,1
DA:1119,1
DA:1120,1
DA:1121,1
DA:1125,1
DA:1126,1
DA:1127,1
DA:1128,1
DA:1129,1
DA:1132,1
DA:1133,1
DA:1136,1
DA:1137,1
DA:1138,1
DA:1139,1
DA:1140,1
DA:1141,1
DA:1145,1
DA:1146,1
DA:1147,1
DA:1148,1
DA:1149,1
DA:1152,1
DA:1155,1
DA:1156,1
DA:1157,1
DA:1158,1
DA:1159,1
DA:1160,1
DA:1164,1
DA:1165,1
DA:1166,1
DA:1167,1
DA:1168,1
DA:1171,1
DA:1174,1
DA:1175,1
DA:1176,1
DA:1177,1
DA:1178,1
DA:1179,1
DA:1183,1
DA:1184,1
DA:1185,1
DA:1186,1
DA:1189,1
DA:1192,1
DA:1193,1
DA:1194,1
DA:1195,1
DA:1196,1
DA:1197,1
DA:1201,1
DA:1202,1
DA:1203,1
DA:1204,1
DA:1205,1
DA:1207,1
DA:1210,1
DA:1211,1
DA:1212,1
DA:1213,1
DA:1214,1
DA:1215,1
DA:1219,1
DA:1220,1
DA:1221,1
DA:1224,1
DA:1225,1
DA:1226,1
DA:1227,1
DA:1228,1
DA:1229,1
DA:1230,1
DA:1233,1
DA:1234,1
DA:1235,1
DA:1236,1
DA:1237,1
DA:1242,1
DA:1243,1
DA:1244,1
DA:1247,1
DA:1248,1
DA:1249,1
DA:1250,1
DA:1251,1
DA:1252,1
DA:1253,1
DA:1257,1
DA:1258,1
DA:1259,1
DA:1260,1
DA:1264,1
DA:1265,1
DA:1266,1
DA:1267,1
DA:1268,1
DA:1269,1
DA:1272,1
DA:1273,1
DA:1275,1
DA:1276,1
DA:1277,1
DA:1280,1
DA:1281,1
DA:1282,1
DA:1283,1
DA:1284,1
DA:1285,1
DA:1289,1
DA:1290,1
DA:1291,1
DA:1292,1
DA:1293,1
DA:1294,1
DA:1297,1
DA:1299,1
DA:1300,1
DA:1301,1
DA:1304,1
DA:1305,1
DA:1306,1
DA:1307,1
DA:1308,1
DA:1309,1
DA:1314,1
DA:1315,1
DA:1316,1
DA:1317,1
DA:1318,1
DA:1319,1
DA:1320,1
DA:1321,1
DA:1322,1
DA:1323,1
DA:1324,1
DA:1327,1
DA:1329,1
DA:1330,1
DA:1331,1
DA:1332,1
DA:1333,1
DA:1335,1
DA:1336,1
DA:1337,1
DA:1338,1
DA:1339,1
DA:1340,1
DA:1343,1
DA:1344,1
DA:1345,1
DA:1346,1
DA:1347,1
DA:1348,1
DA:1352,1
DA:1353,1
DA:1354,1
DA:1355,1
DA:1356,1
DA:1357,1
DA:1358,1
DA:1359,1
DA:1362,1
DA:1363,1
DA:1364,1
DA:1365,1
DA:1366,1
DA:1367,1
DA:1368,1
DA:1371,1
DA:1372,1
DA:1373,1
DA:1374,1
DA:1375,1
DA:1376,1
DA:1377,1
DA:1381,1
DA:1383,1
DA:1384,1
DA:1385,1
DA:1386,1
DA:1387,1
DA:1388,1
DA:1389,1
DA:1390,1
DA:1391,1
DA:1394,1
DA:1395,1
DA:1396,1
DA:1397,1
DA:1398,1
DA:1399,1
DA:1402,1
DA:1403,1
DA:1404,1
DA:1405,1
DA:1406,1
DA:1407,1
DA:1408,1
DA:1411,1
DA:1412,1
DA:1413,1
DA:1414,1
DA:1415,1
DA:1416,1
DA:1420,1
DA:1422,1
DA:1423,1
DA:1424,1
DA:1425,1
DA:1426,1
DA:1427,1
DA:1428,1
DA:1429,1
DA:1430,1
DA:1431,1
DA:1434,1
DA:1435,1
DA:1436,1
DA:1437,1
DA:1439,1
DA:1440,1
DA:1441,1
DA:1442,1
DA:1443,1
DA:1444,1
DA:1445,1
DA:1446,1
DA:1447,1
DA:1450,1
DA:1452,1
DA:1453,1
DA:1454,1
DA:1455,1
DA:1456,1
DA:1457,1
DA:1458,1
DA:1462,1
DA:1463,1
DA:1464,1
DA:1465,1
DA:1466,1
DA:1467,1
DA:1470,1
DA:1471,1
DA:1472,1
DA:1473,1
DA:1474,1
DA:1475,1
DA:1477,1
DA:1478,1
DA:1479,1
DA:1480,1
DA:1481,1
DA:1482,1
DA:1483,1
DA:1484,1
DA:1487,1
DA:1488,1
DA:1489,1
DA:1490,1
DA:1491,1
DA:1492,1
DA:1493,1
DA:1496,1
DA:1497,1
DA:1498,1
DA:1499,1
DA:1501,1
DA:1502,1
DA:1503,1
DA:1504,1
DA:1505,1
DA:1506,1
DA:1507,1
DA:1508,1
DA:1509,1
DA:1510,1
DA:1511,1
DA:1512,1
DA:1513,1
DA:1514,1
DA:1515,1
DA:1516,1
DA:1517,1
DA:1518,1
DA:1519,1
DA:1522,1
DA:1523,1
DA:1524,1
DA:1525,1
DA:1526,1
DA:1527,1
DA:1528,1
DA:1529,1
DA:1532,1
DA:1533,1
DA:1534,1
DA:1535,1
DA:1539,1
DA:1540,1
DA:1541,1
DA:1542,1
DA:1543,1
DA:1546,1
DA:1547,1
DA:1548,1
DA:1549,1
DA:1550,1
DA:1551,1
DA:1552,1
DA:1553,1
DA:1554,1
DA:1555,1
DA:1559,1
DA:1560,1
DA:1561,1
DA:1562,1
DA:1563,1
DA:1564,1
DA:1565,1
DA:1566,1
DA:1567,1
DA:1568,1
DA:1569,1
DA:1572,1
DA:1573,1
DA:1574,1
DA:1575,1
DA:1576,1
DA:1577,1
DA:1578,1
DA:1579,1
DA:1580,1
DA:1584,1
DA:1585,1
DA:1586,1
DA:1587,1
DA:1588,1
DA:1589,1
DA:1590,1
DA:1593,1
DA:1594,1
DA:1595,1
DA:1596,1
DA:1597,1
DA:1598,1
DA:1599,1
DA:1600,1
DA:1604,1
DA:1605,1
DA:1606,1
DA:1607,1
DA:1608,1
DA:1609,1
DA:1612,1
DA:1613,1
DA:1614,1
DA:1615,1
DA:1616,1
DA:1617,1
DA:1618,1
DA:1619,1
DA:1620,1
DA:1621,1
DA:1624,1
DA:1625,1
DA:1626,1
DA:1627,1
DA:1628,1
DA:1629,1
DA:1630,1
DA:1631,1
DA:1634,1
DA:1635,1
DA:1636,1
DA:1637,1
DA:1638,1
DA:1639,1
DA:1640,1
DA:1641,1
DA:1646,1
DA:1647,1
DA:1648,1
DA:1649,1
DA:1650,1
DA:1651,1
DA:1652,1
DA:1655,1
DA:1656,1
DA:1659,1
DA:1660,1
DA:1661,1
DA:1662,1
DA:1663,1
DA:1664,1
DA:1665,1
DA:1666,1
DA:1667,1
DA:1670,1
DA:1671,1
DA:1672,1
DA:1673,1
DA:1674,1
DA:1675,1
DA:1676,1
DA:1681,1
DA:1682,1
DA:1683,1
DA:1684,1
DA:1685,1
DA:1688,1
DA:1690,1
DA:1691,1
DA:1692,1
DA:1693,1
DA:1694,1
DA:1695,1
DA:1696,1
DA:1697,1
DA:1700,8
DA:1701,7
DA:1702,7
DA:1703,7
DA:1704,7
DA:1705,7
DA:1706,7
DA:1707,7
DA:1711,7
DA:1712,7
DA:1713,7
DA:1714,7
DA:1716,1
DA:1719,1
DA:1721,1
DA:1722,1
DA:1723,1
DA:1724,1
DA:1725,1
DA:1729,1
DA:1730,1
DA:1731,1
DA:1734,1
DA:1736,1
DA:1737,1
DA:1738,1
DA:1739,1
DA:1740,1
DA:1741,1
DA:1745,1
DA:1746,1
DA:1747,1
DA:1748,1
DA:1749,1
DA:1750,1
DA:1751,1
DA:1756,1
DA:1757,1
DA:1758,1
DA:1759,1
DA:1760,1
DA:1763,1
DA:1765,1
DA:1766,1
DA:1767,1
DA:1768,1
DA:1769,1
DA:1770,1
DA:1774,1
DA:1775,1
DA:1776,1
DA:1777,1
DA:1778,1
DA:1781,1
DA:1783,1
DA:1784,1
DA:1785,1
DA:1786,1
DA:1787,1
DA:1788,1
DA:1789,1
DA:1793,1
DA:1794,1
DA:1795,1
DA:1796,1
DA:1797,1
DA:1800,1
DA:1802,1
DA:1803,1
DA:1804,1
DA:1805,1
DA:1806,1
DA:1807,1
DA:1812,1
DA:1813,1
DA:1814,1
DA:1815,1
DA:1816,1
DA:1817,1
DA:1821,1
DA:1822,1
DA:1823,1
DA:1824,1
DA:1825,1
DA:1826,1
DA:1827,1
DA:1828,1
DA:1831,1
DA:1832,1
DA:1833,1
DA:1835,1
DA:1836,1
DA:1837,1
DA:1838,1
DA:1839,1
DA:1840,1
DA:1841,1
DA:1842,1
DA:1843,1
DA:1846,1
DA:1847,1
DA:1848,1
DA:1849,1
DA:1850,1
DA:1851,1
DA:1854,1
DA:1855,1
DA:1856,1
DA:1857,1
DA:1858,1
DA:1859,1
DA:1862,1
DA:1863,1
DA:1864,1
DA:1865,1
DA:1866,1
DA:1870,1
DA:1871,1
DA:1873,1
DA:1874,1
DA:1875,1
DA:1876,1
DA:1877,1
DA:1878,1
DA:1879,1
DA:1880,1
DA:1881,1
DA:1882,1
DA:1883,1
DA:1886,1
DA:1887,1
DA:1888,1
DA:1889,1
DA:1890,1
DA:1891,1
DA:1894,1
DA:1895,1
DA:1896,1
DA:1897,1
DA:1898,1
DA:1901,1
DA:1902,1
DA:1903,1
DA:1904,1
DA:1905,1
DA:1906,1
DA:1907,1
DA:1908,1
DA:1911,1
DA:1912,1
DA:1913,1
DA:1914,1
DA:1915,1
DA:1916,1
DA:1917,1
DA:1921,1
DA:1923,1
DA:1924,1
DA:1925,1
DA:1926,1
DA:1927,1
DA:1928,1
DA:1929,1
DA:1932,1
DA:1933,1
DA:1934,1
DA:1935,1
BRF:0
BRH:0
LF:1394
LH:1169
end_of_record
SF:/home/nitro/Projects/pwf/crates/pwf-converters/src/tcx/exporter.rs
FN:175,_RNCNvNtNtCs6byCTvXotUD_14pwf_converters3tcx8exporter23convert_exercise_to_lap0B7_
FN:226,_RNCNvNtNtCs6byCTvXotUD_14pwf_converters3tcx8exporter26convert_gps_route_to_track0B7_
FN:239,_RNCNvNtNtCs6byCTvXotUD_14pwf_converters3tcx8exporter26convert_gps_route_to_tracks0_0B7_
FN:252,_RNCNvNtNtCs6byCTvXotUD_14pwf_converters3tcx8exporter26convert_gps_route_to_tracks1_0B7_
FN:233,_RNCNvNtNtCs6byCTvXotUD_14pwf_converters3tcx8exporter26convert_gps_route_to_tracks_0B7_
FN:16,_RNvNtNtCs6byCTvXotUD_14pwf_converters3tcx8exporter10pwf_to_tcx
FN:440,_RNvNtNtCs6byCTvXotUD_14pwf_converters3tcx8exporter10xml_escape
FN:338,_RNvNtNtCs6byCTvXotUD_14pwf_converters3tcx8exporter13serialize_lap
FN:289,_RNvNtNtCs6byCTvXotUD_14pwf_converters3tcx8exporter13serialize_tcx
FN:376,_RNvNtNtCs6byCTvXotUD_14pwf_converters3tcx8exporter15serialize_track
FN:263,_RNvNtNtCs6byCTvXotUD_14pwf_converters3tcx8exporter18create_minimal_lap
FN:319,_RNvNtNtCs6byCTvXotUD_14pwf_converters3tcx8exporter18serialize_activity
FN:388,_RNvNtNtCs6byCTvXotUD_14pwf_converters3tcx8exporter20serialize_trackpoint
FN:113,_RNvNtNtCs6byCTvXotUD_14pwf_converters3tcx8exporter23convert_exercise_to_lap
FN:215,_RNvNtNtCs6byCTvXotUD_14pwf_converters3tcx8exporter26convert_gps_route_to_track
FN:56,_RNvNtNtCs6byCTvXotUD_14pwf_converters3tcx8exporter27convert_workout_to_activity
FN:472,_RNvNtNtNtCs6byCTvXotUD_14pwf_converters3tcx8exporter5testss_21test_xml_escape_quote
FN:457,_RNvNtNtNtCs6byCTvXotUD_14pwf_converters3tcx8exporter5testss_25test_xml_escape_ampersand
FN:462,_RNvNtNtNtCs6byCTvXotUD_14pwf_converters3tcx8exporter5testss_25test_xml_escape_less_than
FN:477,_RNvNtNtNtCs6byCTvXotUD_14pwf_converters3tcx8exporter5testss_26test_xml_escape_apostrophe
FN:503,_RNvNtNtNtCs6byCTvXotUD_14pwf_converters3tcx8exporter5testss_28test_xml_escape_empty_string
FN:467,_RNvNtNtNtCs6byCTvXotUD_14pwf_converters3tcx8exporter5testss_28test_xml_escape_greater_than
FN:544,_RNvNtNtNtCs6byCTvXotUD_14pwf_converters3tcx8exporter5testss_29test_pwf_to_tcx_empty_history
FN:495,_RNvNtNtNtCs6byCTvXotUD_14pwf_converters3tcx8exporter5testss_29test_xml_escape_mixed_content
FN:561,_RNvNtNtNtCs6byCTvXotUD_14pwf_converters3tcx8exporter5testss_30test_pwf_to_tcx_simple_workout
FN:490,_RNvNtNtNtCs6byCTvXotUD_14pwf_converters3tcx8exporter5testss_32test_xml_escape_no_special_chars
FN:510,_RNvNtNtNtCs6byCTvXotUD_14pwf_converters3tcx8exporter5testss_33test_serialize_tcx_empty_database
FN:482,_RNvNtNtNtCs6byCTvXotUD_14pwf_converters3tcx8exporter5testss_33test_xml_escape_all_special_chars
FN:527,_RNvNtNtNtCs6byCTvXotUD_14pwf_converters3tcx8exporter5testss_34test_serialize_tcx_with_namespaces
FNDA:0,_RNCNvNtNtCs6byCTvXotUD_14pwf_converters3tcx8exporter23convert_exercise_to_lap0B7_
FNDA:0,_RNCNvNtNtCs6byCTvXotUD_14pwf_converters3tcx8exporter26convert_gps_route_to_track0B7_
FNDA:0,_RNCNvNtNtCs6byCTvXotUD_14pwf_converters3tcx8exporter26convert_gps_route_to_tracks0_0B7_
FNDA:0,_RNCNvNtNtCs6byCTvXotUD_14pwf_converters3tcx8exporter26convert_gps_route_to_tracks1_0B7_
FNDA:0,_RNCNvNtNtCs6byCTvXotUD_14pwf_converters3tcx8exporter26convert_gps_route_to_tracks_0B7_
FNDA:2,_RNvNtNtCs6byCTvXotUD_14pwf_converters3tcx8exporter10pwf_to_tcx
FNDA:12,_RNvNtNtCs6byCTvXotUD_14pwf_converters3tcx8exporter10xml_escape
FNDA:1,_RNvNtNtCs6byCTvXotUD_14pwf_converters3tcx8exporter13serialize_lap
FNDA:4,_RNvNtNtCs6byCTvXotUD_14pwf_converters3tcx8exporter13serialize_tcx
FNDA:0,_RNvNtNtCs6byCTvXotUD_14pwf_converters3tcx8exporter15serialize_track
FNDA:1,_RNvNtNtCs6byCTvXotUD_14pwf_converters3tcx8exporter18create_minimal_lap
FNDA:1,_RNvNtNtCs6byCTvXotUD_14pwf_converters3tcx8exporter18serialize_activity
FNDA:0,_RNvNtNtCs6byCTvXotUD_14pwf_converters3tcx8exporter20serialize_trackpoint
FNDA:0,_RNvNtNtCs6byCTvXotUD_14pwf_converters3tcx8exporter23convert_exercise_to_lap
FNDA:0,_RNvNtNtCs6byCTvXotUD_14pwf_converters3tcx8exporter26convert_gps_route_to_track
FNDA:1,_RNvNtNtCs6byCTvXotUD_14pwf_converters3tcx8exporter27convert_workout_to_activity
FNDA:1,_RNvNtNtNtCs6byCTvXotUD_14pwf_converters3tcx8exporter5testss_21test_xml_escape_quote
FNDA:1,_RNvNtNtNtCs6byCTvXotUD_14pwf_converters3tcx8exporter5testss_25test_xml_escape_ampersand
FNDA:1,_RNvNtNtNtCs6byCTvXotUD_14pwf_converters3tcx8exporter5testss_25test_xml_escape_less_than
FNDA:1,_RNvNtNtNtCs6byCTvXotUD_14pwf_converters3tcx8exporter5testss_26test_xml_escape_apostrophe
FNDA:1,_RNvNtNtNtCs6byCTvXotUD_14pwf_converters3tcx8exporter5testss_28test_xml_escape_empty_string
FNDA:1,_RNvNtNtNtCs6byCTvXotUD_14pwf_converters3tcx8exporter5testss_28test_xml_escape_greater_than
FNDA:1,_RNvNtNtNtCs6byCTvXotUD_14pwf_converters3tcx8exporter5testss_29test_pwf_to_tcx_empty_history
FNDA:1,_RNvNtNtNtCs6byCTvXotUD_14pwf_converters3tcx8exporter5testss_29test_xml_escape_mixed_content
FNDA:1,_RNvNtNtNtCs6byCTvXotUD_14pwf_converters3tcx8exporter5testss_30test_pwf_to_tcx_simple_workout
FNDA:1,_RNvNtNtNtCs6byCTvXotUD_14pwf_converters3tcx8exporter5testss_32test_xml_escape_no_special_chars
FNDA:1,_RNvNtNtNtCs6byCTvXotUD_14pwf_converters3tcx8exporter5testss_33test_serialize_tcx_empty_database
FNDA:1,_RNvNtNtNtCs6byCTvXotUD_14pwf_converters3tcx8exporter5testss_33test_xml_escape_all_special_chars
FNDA:1,_RNvNtNtNtCs6byCTvXotUD_14pwf_converters3tcx8exporter5testss_34test_serialize_tcx_with_namespaces
FNF:29
FNH:20
DA:16,2
DA:17,2
DA:20,2
DA:21,2
DA:22,2
DA:23,2
DA:24,2
DA:25,2
DA:28,2
DA:29,3
DA:30,1
DA:31,1
DA:32,0
DA:33,0
DA:34,0
DA:35,0
DA:36,0
DA:41,2
DA:42,1
DA:43,1
DA:44,1
DA:45,1
DA:46,1
DA:47,1
DA:50,2
DA:52,2
DA:53,2
DA:56,1
DA:57,1
DA:58,1
DA:59,1
DA:61,1
DA:62,1
DA:65,0
DA:66,0
DA:67,0
DA:68,0
DA:69,0
DA:73,1
DA:74,1
DA:77,0
DA:81,1
DA:85,1
DA:86,0
DA:87,0
DA:88,0
DA:89,0
DA:90,0
DA:91,0
DA:92,0
DA:97,1
DA:98,1
DA:99,0
DA:101,1
DA:102,1
DA:103,1
DA:104,1
DA:105,1
DA:106,1
DA:107,1
DA:109,1
DA:110,1
DA:113,0
DA:114,0
DA:115,0
DA:116,0
DA:117,0
DA:118,0
DA:120,0
DA:121,0
DA:123,0
DA:127,0
DA:128,0
DA:129,0
DA:130,0
DA:131,0
DA:132,0
DA:135,0
DA:137,0
DA:138,0
DA:139,0
DA:142,0
DA:143,0
DA:144,0
DA:147,0
DA:148,0
DA:149,0
DA:150,0
DA:151,0
DA:152,0
DA:153,0
DA:154,0
DA:155,0
DA:159,0
DA:160,0
DA:161,0
DA:162,0
DA:163,0
DA:164,0
DA:165,0
DA:168,0
DA:169,0
DA:171,0
DA:175,0
DA:178,0
DA:179,0
DA:180,0
DA:181,0
DA:182,0
DA:183,0
DA:184,0
DA:187,0
DA:188,0
DA:189,0
DA:190,0
DA:191,0
DA:192,0
DA:193,0
DA:194,0
DA:196,0
DA:197,0
DA:198,0
DA:199,0
DA:200,0
DA:201,0
DA:202,0
DA:203,0
DA:204,0
DA:205,0
DA:206,0
DA:207,0
DA:208,0
DA:209,0
DA:211,0
DA:212,0
DA:215,0
DA:216,0
DA:217,0
DA:218,0
DA:219,0
DA:221,0
DA:223,0
DA:224,0
DA:225,0
DA:226,0
DA:228,0
DA:229,0
DA:230,0
DA:231,0
DA:233,0
DA:235,0
DA:238,0
DA:239,0
DA:243,0
DA:246,0
DA:247,0
DA:248,0
DA:249,0
DA:250,0
DA:251,0
DA:252,0
DA:253,0
DA:256,0
DA:259,0
DA:260,0
DA:263,1
DA:264,1
DA:265,1
DA:266,1
DA:267,1
DA:269,1
DA:270,1
DA:271,1
DA:272,1
DA:273,1
DA:274,1
DA:275,1
DA:276,1
DA:277,1
DA:278,1
DA:279,1
DA:280,1
DA:281,1
DA:282,1
DA:284,1
DA:285,1
DA:289,4
DA:290,4
DA:293,4
DA:294,4
DA:297,4
DA:298,4
DA:299,4
DA:300,4
DA:301,4
DA:304,4
DA:305,1
DA:306,2
DA:307,1
DA:309,1
DA:310,3
DA:313,4
DA:315,4
DA:316,4
DA:319,1
DA:320,1
DA:321,1
DA:324,2
DA:325,1
DA:329,1
DA:330,1
DA:331,1
DA:333,1
DA:334,1
DA:335,1
DA:338,1
DA:340,1
DA:342,1
DA:343,1
DA:345,1
DA:346,0
DA:347,1
DA:349,1
DA:351,1
DA:352,0
DA:353,1
DA:355,1
DA:356,0
DA:357,1
DA:359,1
DA:360,1
DA:363,1
DA:364,0
DA:367,1
DA:368,0
DA:369,1
DA:371,1
DA:372,1
DA:373,1
DA:376,0
DA:377,0
DA:379,0
DA:380,0
DA:383,0
DA:384,0
DA:385,0
DA:388,0
DA:389,0
DA:391,0
DA:393,0
DA:394,0
DA:395,0
DA:396,0
DA:397,0
DA:398,0
DA:400,0
DA:401,0
DA:402,0
DA:404,0
DA:405,0
DA:406,0
DA:408,0
DA:409,0
DA:410,0
DA:412,0
DA:413,0
DA:414,0
DA:417,0
DA:418,0
DA:419,0
DA:420,0
DA:422,0
DA:423,0
DA:424,0
DA:426,0
DA:427,0
DA:428,0
DA:430,0
DA:431,0
DA:432,0
DA:433,0
DA:435,0
DA:436,0
DA:437,0
DA:440,12
DA:441,12
DA:442,12
DA:443,12
DA:444,12
DA:445,12
DA:446,12
DA:457,1
DA:458,1
DA:459,1
DA:462,1
DA:463,1
DA:464,1
DA:467,1
DA:468,1
DA:469,1
DA:472,1
DA:473,1
DA:474,1
DA:477,1
DA:478,1
DA:479,1
DA:482,1
DA:483,1
DA:484,1
DA:487,1
DA:490,1
DA:491,1
DA:492,1
DA:495,1
DA:496,1
DA:497,1
DA:500,1
DA:503,1
DA:504,1
DA:505,1
DA:510,1
DA:511,1
DA:512,1
DA:513,1
DA:514,1
DA:515,1
DA:516,1
DA:518,1
DA:520,1
DA:521,1
DA:522,1
DA:523,1
DA:524,1
DA:527,1
DA:528,1
DA:529,1
DA:530,1
DA:531,1
DA:532,1
DA:533,1
DA:535,1
DA:537,1
DA:538,1
DA:539,1
DA:544,1
DA:545,1
DA:546,1
DA:547,1
DA:548,1
DA:549,1
DA:550,1
DA:551,1
DA:552,1
DA:553,1
DA:555,1
DA:556,1
DA:557,1
DA:558,1
DA:561,1
DA:562,1
DA:563,1
DA:564,1
DA:565,1
DA:566,1
DA:567,1
DA:568,1
DA:569,1
DA:570,1
DA:571,1
DA:572,1
DA:573,1
DA:574,1
DA:575,1
DA:576,1
DA:577,1
DA:579,1
DA:580,1
DA:581,1
DA:582,1
DA:583,1
DA:584,1
DA:585,1
DA:586,1
DA:587,1
DA:589,1
DA:590,1
DA:591,1
DA:592,1
DA:593,1
BRF:0
BRH:0
LF:394
LH:217
end_of_record
SF:/home/nitro/Projects/pwf/crates/pwf-converters/src/tcx/mappings.rs
FN:9,_RNvNtNtCs6byCTvXotUD_14pwf_converters3tcx8mappings13map_tcx_sport
FN:34,_RNvNtNtCs6byCTvXotUD_14pwf_converters3tcx8mappings20map_pwf_sport_to_tcx
FN:25,_RNvNtNtCs6byCTvXotUD_14pwf_converters3tcx8mappings14map_tcx_stroke
FN:51,_RNvNtNtNtCs6byCTvXotUD_14pwf_converters3tcx8mappings5testss_18test_map_tcx_sport
FN:66,_RNvNtNtNtCs6byCTvXotUD_14pwf_converters3tcx8mappings5testss_35test_map_tcx_sport_case_insensitive
FNDA:13,_RNvNtNtCs6byCTvXotUD_14pwf_converters3tcx8mappings13map_tcx_sport
FNDA:1,_RNvNtNtCs6byCTvXotUD_14pwf_converters3tcx8mappings20map_pwf_sport_to_tcx
FNDA:0,_RNvNtNtCs6byCTvXotUD_14pwf_converters3tcx8mappings14map_tcx_stroke
FNDA:1,_RNvNtNtNtCs6byCTvXotUD_14pwf_converters3tcx8mappings5testss_18test_map_tcx_sport
FNDA:1,_RNvNtNtNtCs6byCTvXotUD_14pwf_converters3tcx8mappings5testss_35test_map_tcx_sport_case_insensitive
FNF:5
FNH:4
DA:9,13
DA:10,13
DA:11,13
DA:12,9
DA:13,7
DA:14,6
DA:15,5
DA:16,4
DA:18,3
DA:20,13
DA:25,0
DA:28,0
DA:29,0
DA:34,1
DA:35,1
DA:36,1
DA:37,0
DA:38,0
DA:39,0
DA:40,0
DA:41,0
DA:42,0
DA:44,1
DA:51,1
DA:52,1
DA:53,1
DA:54,1
DA:55,1
DA:56,1
DA:57,1
DA:58,1
DA:59,1
DA:61,1
DA:62,1
DA:63,1
DA:66,1
DA:67,1
DA:68,1
DA:69,1
DA:70,1
BRF:0
BRH:0
LF:40
LH:31
end_of_record
SF:/home/nitro/Projects/pwf/crates/pwf-converters/src/tcx/parser.rs
FN:412,_RNvNtNtNtCs6byCTvXotUD_14pwf_converters3tcx6parser5testss_24test_tcx_to_pwf_compiles
FN:419,_RNvNtNtNtCs6byCTvXotUD_14pwf_converters3tcx6parser5testss_25test_create_empty_history
FN:93,_RNvNtNtCs6byCTvXotUD_14pwf_converters3tcx6parser20create_empty_history
FN:21,_RINvNtNtCs6byCTvXotUD_14pwf_converters3tcx6parser10tcx_to_pwfpEB6_
FN:300,_RNCNCNvNtNtCs6byCTvXotUD_14pwf_converters3tcx6parser17extract_gps_route00B9_
FN:302,_RNCNCNvNtNtCs6byCTvXotUD_14pwf_converters3tcx6parser17extract_gps_route0s_0B9_
FN:282,_RNCNvNtNtCs6byCTvXotUD_14pwf_converters3tcx6parser17extract_gps_route0B7_
FN:275,_RNvNtNtCs6byCTvXotUD_14pwf_converters3tcx6parser17extract_gps_route
FN:111,_RNvNtNtCs6byCTvXotUD_14pwf_converters3tcx6parser27convert_activity_to_workout
FNDA:1,_RNvNtNtNtCs6byCTvXotUD_14pwf_converters3tcx6parser5testss_24test_tcx_to_pwf_compiles
FNDA:1,_RNvNtNtNtCs6byCTvXotUD_14pwf_converters3tcx6parser5testss_25test_create_empty_history
FNDA:1,_RNvNtNtCs6byCTvXotUD_14pwf_converters3tcx6parser20create_empty_history
FNDA:0,_RINvNtNtCs6byCTvXotUD_14pwf_converters3tcx6parser10tcx_to_pwfpEB6_
FNDA:0,_RNCNCNvNtNtCs6byCTvXotUD_14pwf_converters3tcx6parser17extract_gps_route00B9_
FNDA:0,_RNCNCNvNtNtCs6byCTvXotUD_14pwf_converters3tcx6parser17extract_gps_route0s_0B9_
FNDA:0,_RNCNvNtNtCs6byCTvXotUD_14pwf_converters3tcx6parser17extract_gps_route0B7_
FNDA:0,_RNvNtNtCs6byCTvXotUD_14pwf_converters3tcx6parser17extract_gps_route
FNDA:0,_RNvNtNtCs6byCTvXotUD_14pwf_converters3tcx6parser27convert_activity_to_workout
FNF:9
FNH:3
DA:21,0
DA:22,0
DA:23,0
DA:24,0
DA:27,0
DA:28,0
DA:29,0
DA:30,0
DA:31,0
DA:32,0
DA:33,0
DA:34,0
DA:38,0
DA:41,0
DA:42,0
DA:44,0
DA:45,0
DA:46,0
DA:48,0
DA:49,0
DA:50,0
DA:55,0
DA:56,0
DA:57,0
DA:58,0
DA:59,0
DA:60,0
DA:61,0
DA:62,0
DA:63,0
DA:68,0
DA:69,0
DA:70,0
DA:71,0
DA:72,0
DA:73,0
DA:74,0
DA:75,0
DA:76,0
DA:77,0
DA:78,0
DA:79,0
DA:80,0
DA:81,0
DA:82,0
DA:83,0
DA:84,0
DA:87,0
DA:89,0
DA:90,0
DA:93,1
DA:94,1
DA:95,1
DA:96,1
DA:97,1
DA:98,1
DA:99,1
DA:100,1
DA:101,1
DA:102,1
DA:103,1
DA:104,1
DA:105,1
DA:106,1
DA:107,1
DA:108,1
DA:111,0
DA:112,0
DA:113,0
DA:114,0
DA:115,0
DA:117,0
DA:120,0
DA:121,0
DA:124,0
DA:125,0
DA:126,0
DA:127,0
DA:130,0
DA:131,0
DA:132,0
DA:133,0
DA:134,0
DA:135,0
DA:137,0
DA:139,0
DA:140,0
DA:142,0
DA:144,0
DA:146,0
DA:147,0
DA:148,0
DA:149,0
DA:150,0
DA:151,0
DA:153,0
DA:154,0
DA:155,0
DA:156,0
DA:159,0
DA:160,0
DA:161,0
DA:164,0
DA:165,0
DA:166,0
DA:167,0
DA:168,0
DA:169,0
DA:171,0
DA:172,0
DA:173,0
DA:174,0
DA:183,0
DA:184,0
DA:185,0
DA:186,0
DA:187,0
DA:188,0
DA:189,0
DA:190,0
DA:191,0
DA:192,0
DA:193,0
DA:194,0
DA:195,0
DA:196,0
DA:197,0
DA:198,0
DA:200,0
DA:201,0
DA:202,0
DA:203,0
DA:204,0
DA:205,0
DA:206,0
DA:207,0
DA:208,0
DA:212,0
DA:214,0
DA:215,0
DA:216,0
DA:217,0
DA:218,0
DA:219,0
DA:220,0
DA:221,0
DA:222,0
DA:223,0
DA:224,0
DA:225,0
DA:226,0
DA:227,0
DA:228,0
DA:231,0
DA:232,0
DA:233,0
DA:234,0
DA:235,0
DA:236,0
DA:240,0
DA:243,0
DA:244,0
DA:245,0
DA:247,0
DA:248,0
DA:249,0
DA:250,0
DA:251,0
DA:253,0
DA:256,0
DA:257,0
DA:258,0
DA:259,0
DA:260,0
DA:261,0
DA:262,0
DA:263,0
DA:264,0
DA:265,0
DA:266,0
DA:267,0
DA:268,0
DA:269,0
DA:270,0
DA:271,0
DA:272,0
DA:275,0
DA:276,0
DA:277,0
DA:278,0
DA:279,0
DA:280,0
DA:281,0
DA:282,0
DA:283,0
DA:284,0
DA:285,0
DA:288,0
DA:289,0
DA:290,0
DA:293,0
DA:294,0
DA:295,0
DA:296,0
DA:297,0
DA:298,0
DA:299,0
DA:300,0
DA:301,0
DA:302,0
DA:303,0
DA:305,0
DA:306,0
DA:308,0
DA:309,0
DA:310,0
DA:313,0
DA:314,0
DA:315,0
DA:316,0
DA:317,0
DA:320,0
DA:321,0
DA:322,0
DA:323,0
DA:325,0
DA:327,0
DA:328,0
DA:329,0
DA:332,0
DA:333,0
DA:334,0
DA:335,0
DA:336,0
DA:337,0
DA:338,0
DA:339,0
DA:340,0
DA:341,0
DA:344,0
DA:345,0
DA:346,0
DA:347,0
DA:351,0
DA:354,0
DA:355,0
DA:356,0
DA:357,0
DA:359,0
DA:361,0
DA:362,0
DA:364,0
DA:366,0
DA:367,0
DA:369,0
DA:371,0
DA:372,0
DA:374,0
DA:376,0
DA:377,0
DA:379,0
DA:381,0
DA:382,0
DA:384,0
DA:386,0
DA:387,0
DA:389,0
DA:391,0
DA:392,0
DA:394,0
DA:396,0
DA:397,0
DA:399,0
DA:401,0
DA:402,0
DA:403,0
DA:405,0
DA:412,1
DA:414,1
DA:415,1
DA:416,1
DA:419,1
DA:420,1
DA:421,1
DA:422,1
DA:423,1
DA:424,1
DA:425,1
BRF:0
BRH:0
LF:291
LH:27
end_of_record
SF:/home/nitro/Projects/pwf/crates/pwf-core/src/error.rs
FN:55,_RINvMNtCslrylOI3GMb2_8pwf_core5errorNtB3_15ValidationIssue15error_with_codeNtNtCsgag4BwXrjBQ_5alloc6string6StringB1b_ReEB5_
FN:55,_RINvMNtCslrylOI3GMb2_8pwf_core5errorNtB3_15ValidationIssue15error_with_codeNtNtCsgag4BwXrjBQ_5alloc6string6StringReB1N_EB5_
FN:55,_RINvMNtCslrylOI3GMb2_8pwf_core5errorNtB3_15ValidationIssue15error_with_codeRNtNtCsgag4BwXrjBQ_5alloc6string6StringReB1O_EB5_
FN:55,_RINvMNtCslrylOI3GMb2_8pwf_core5errorNtB3_15ValidationIssue15error_with_codeReB1b_B1b_EB5_
FN:55,_RINvMNtCslrylOI3GMb2_8pwf_core5errorNtB3_15ValidationIssue15error_with_codeReNtNtCsgag4BwXrjBQ_5alloc6string6StringB1b_EB5_
FN:68,_RINvMNtCslrylOI3GMb2_8pwf_core5errorNtB3_15ValidationIssue17warning_with_codeNtNtCsgag4BwXrjBQ_5alloc6string6StringB1d_ReEB5_
FN:68,_RINvMNtCslrylOI3GMb2_8pwf_core5errorNtB3_15ValidationIssue17warning_with_codeNtNtCsgag4BwXrjBQ_5alloc6string6StringReB1P_EB5_
FN:68,_RINvMNtCslrylOI3GMb2_8pwf_core5errorNtB3_15ValidationIssue17warning_with_codeRNtNtCsgag4BwXrjBQ_5alloc6string6StringB1e_ReEB5_
FN:68,_RINvMNtCslrylOI3GMb2_8pwf_core5errorNtB3_15ValidationIssue17warning_with_codeRNtNtCsgag4BwXrjBQ_5alloc6string6StringReB1Q_EB5_
FN:68,_RINvMNtCslrylOI3GMb2_8pwf_core5errorNtB3_15ValidationIssue17warning_with_codeReB1d_B1d_EB5_
FN:37,_RINvMNtCslrylOI3GMb2_8pwf_core5errorNtB3_15ValidationIssue5errorNtNtCsgag4BwXrjBQ_5alloc6string6StringB10_EB5_
FN:37,_RINvMNtCslrylOI3GMb2_8pwf_core5errorNtB3_15ValidationIssue5errorNtNtCsgag4BwXrjBQ_5alloc6string6StringReEB5_
FN:37,_RINvMNtCslrylOI3GMb2_8pwf_core5errorNtB3_15ValidationIssue5errorRNtNtCsgag4BwXrjBQ_5alloc6string6StringReEB5_
FN:37,_RINvMNtCslrylOI3GMb2_8pwf_core5errorNtB3_15ValidationIssue5errorReB10_EB5_
FN:37,_RINvMNtCslrylOI3GMb2_8pwf_core5errorNtB3_15ValidationIssue5errorReNtNtCsgag4BwXrjBQ_5alloc6string6StringEB5_
FN:46,_RINvMNtCslrylOI3GMb2_8pwf_core5errorNtB3_15ValidationIssue7warningNtNtCsgag4BwXrjBQ_5alloc6string6StringReEB5_
FN:46,_RINvMNtCslrylOI3GMb2_8pwf_core5errorNtB3_15ValidationIssue7warningRNtNtCsgag4BwXrjBQ_5alloc6string6StringReEB5_
FN:46,_RINvMNtCslrylOI3GMb2_8pwf_core5errorNtB3_15ValidationIssue7warningReB12_EB5_
FNDA:0,_RINvMNtCslrylOI3GMb2_8pwf_core5errorNtB3_15ValidationIssue15error_with_codeNtNtCsgag4BwXrjBQ_5alloc6string6StringB1b_ReEB5_
FNDA:0,_RINvMNtCslrylOI3GMb2_8pwf_core5errorNtB3_15ValidationIssue15error_with_codeNtNtCsgag4BwXrjBQ_5alloc6string6StringReB1N_EB5_
FNDA:0,_RINvMNtCslrylOI3GMb2_8pwf_core5errorNtB3_15ValidationIssue15error_with_codeRNtNtCsgag4BwXrjBQ_5alloc6string6StringReB1O_EB5_
FNDA:0,_RINvMNtCslrylOI3GMb2_8pwf_core5errorNtB3_15ValidationIssue15error_with_codeReB1b_B1b_EB5_
FNDA:0,_RINvMNtCslrylOI3GMb2_8pwf_core5errorNtB3_15ValidationIssue15error_with_codeReNtNtCsgag4BwXrjBQ_5alloc6string6StringB1b_EB5_
FNDA:0,_RINvMNtCslrylOI3GMb2_8pwf_core5errorNtB3_15ValidationIssue17warning_with_codeNtNtCsgag4BwXrjBQ_5alloc6string6StringB1d_ReEB5_
FNDA:0,_RINvMNtCslrylOI3GMb2_8pwf_core5errorNtB3_15ValidationIssue17warning_with_codeNtNtCsgag4BwXrjBQ_5alloc6string6StringReB1P_EB5_
FNDA:0,_RINvMNtCslrylOI3GMb2_8pwf_core5errorNtB3_15ValidationIssue17warning_with_codeRNtNtCsgag4BwXrjBQ_5alloc6string6StringB1e_ReEB5_
FNDA:0,_RINvMNtCslrylOI3GMb2_8pwf_core5errorNtB3_15ValidationIssue17warning_with_codeRNtNtCsgag4BwXrjBQ_5alloc6string6StringReB1Q_EB5_
FNDA:0,_RINvMNtCslrylOI3GMb2_8pwf_core5errorNtB3_15ValidationIssue17warning_with_codeReB1d_B1d_EB5_
FNDA:0,_RINvMNtCslrylOI3GMb2_8pwf_core5errorNtB3_15ValidationIssue5errorNtNtCsgag4BwXrjBQ_5alloc6string6StringB10_EB5_
FNDA:0,_RINvMNtCslrylOI3GMb2_8pwf_core5errorNtB3_15ValidationIssue5errorNtNtCsgag4BwXrjBQ_5alloc6string6StringReEB5_
FNDA:0,_RINvMNtCslrylOI3GMb2_8pwf_core5errorNtB3_15ValidationIssue5errorRNtNtCsgag4BwXrjBQ_5alloc6string6StringReEB5_
FNDA:0,_RINvMNtCslrylOI3GMb2_8pwf_core5errorNtB3_15ValidationIssue5errorReB10_EB5_
FNDA:0,_RINvMNtCslrylOI3GMb2_8pwf_core5errorNtB3_15ValidationIssue5errorReNtNtCsgag4BwXrjBQ_5alloc6string6StringEB5_
FNDA:0,_RINvMNtCslrylOI3GMb2_8pwf_core5errorNtB3_15ValidationIssue7warningNtNtCsgag4BwXrjBQ_5alloc6string6StringReEB5_
FNDA:0,_RINvMNtCslrylOI3GMb2_8pwf_core5errorNtB3_15ValidationIssue7warningRNtNtCsgag4BwXrjBQ_5alloc6string6StringReEB5_
FNDA:0,_RINvMNtCslrylOI3GMb2_8pwf_core5errorNtB3_15ValidationIssue7warningReB12_EB5_
FNF:4
FNH:0
DA:37,0
DA:38,0
DA:39,0
DA:40,0
DA:41,0
DA:42,0
DA:43,0
DA:44,0
DA:46,0
DA:47,0
DA:48,0
DA:49,0
DA:50,0
DA:51,0
DA:52,0
DA:53,0
DA:55,0
DA:56,0
DA:57,0
DA:58,0
DA:59,0
DA:60,0
DA:61,0
DA:62,0
DA:63,0
DA:64,0
DA:65,0
DA:66,0
DA:68,0
DA:69,0
DA:70,0
DA:71,0
DA:72,0
DA:73,0
DA:74,0
DA:75,0
DA:76,0
DA:77,0
DA:78,0
DA:79,0
BRF:0
BRH:0
LF:40
LH:0
end_of_record
SF:/home/nitro/Projects/pwf/crates/pwf-core/src/history/types.rs
FN:1050,_RNCNCNvMs3_NtNtCslrylOI3GMb2_8pwf_core7history5typesNtB9_15SwimmingSetData19calculate_avg_swolf00Bd_
FN:1000,_RNCNvMs2_NtNtCslrylOI3GMb2_8pwf_core7history5typesNtB7_14SwimmingLength15calculate_swolf0Bb_
FN:1050,_RNCNvMs3_NtNtCslrylOI3GMb2_8pwf_core7history5typesNtB7_15SwimmingSetData19calculate_avg_swolf0Bb_
FN:1065,_RNCNvMs3_NtNtCslrylOI3GMb2_8pwf_core7history5typesNtB7_15SwimmingSetData20count_active_lengths0Bb_
FN:24,_RNvMNtNtCslrylOI3GMb2_8pwf_core7history5typesNtB2_10WpsHistory5is_v2
FN:728,_RNvMs0_NtNtCslrylOI3GMb2_8pwf_core7history5typesNtB5_14TimeSeriesData12duration_sec
FN:664,_RNvMs0_NtNtCslrylOI3GMb2_8pwf_core7history5typesNtB5_14TimeSeriesData16validate_lengths
FN:717,_RNvMs0_NtNtCslrylOI3GMb2_8pwf_core7history5typesNtB5_14TimeSeriesData3len
FN:722,_RNvMs0_NtNtCslrylOI3GMb2_8pwf_core7history5typesNtB5_14TimeSeriesData8is_empty
FN:933,_RNvMs1_NtNtCslrylOI3GMb2_8pwf_core7history5typesNtB5_10PoolConfig16length_in_meters
FN:941,_RNvMs1_NtNtCslrylOI3GMb2_8pwf_core7history5typesNtB5_10PoolConfig8pool_25m
FN:949,_RNvMs1_NtNtCslrylOI3GMb2_8pwf_core7history5typesNtB5_10PoolConfig8pool_50m
FN:957,_RNvMs1_NtNtCslrylOI3GMb2_8pwf_core7history5typesNtB5_10PoolConfig9pool_25yd
FN:1004,_RNvMs2_NtNtCslrylOI3GMb2_8pwf_core7history5typesNtB5_14SwimmingLength14validate_swolf
FN:999,_RNvMs2_NtNtCslrylOI3GMb2_8pwf_core7history5typesNtB5_14SwimmingLength15calculate_swolf
FN:1042,_RNvMs3_NtNtCslrylOI3GMb2_8pwf_core7history5typesNtB5_15SwimmingSetData19calculate_avg_swolf
FN:1062,_RNvMs3_NtNtCslrylOI3GMb2_8pwf_core7history5typesNtB5_15SwimmingSetData20count_active_lengths
FN:52,_RNvXs_NtNtCslrylOI3GMb2_8pwf_core7history5typesNtB4_5UnitsNtNtCs3XFJfFEDSOQ_4core7default7Default7default
FNDA:0,_RNCNCNvMs3_NtNtCslrylOI3GMb2_8pwf_core7history5typesNtB9_15SwimmingSetData19calculate_avg_swolf00Bd_
FNDA:0,_RNCNvMs2_NtNtCslrylOI3GMb2_8pwf_core7history5typesNtB7_14SwimmingLength15calculate_swolf0Bb_
FNDA:0,_RNCNvMs3_NtNtCslrylOI3GMb2_8pwf_core7history5typesNtB7_15SwimmingSetData19calculate_avg_swolf0Bb_
FNDA:0,_RNCNvMs3_NtNtCslrylOI3GMb2_8pwf_core7history5typesNtB7_15SwimmingSetData20count_active_lengths0Bb_
FNDA:0,_RNvMNtNtCslrylOI3GMb2_8pwf_core7history5typesNtB2_10WpsHistory5is_v2
FNDA:0,_RNvMs0_NtNtCslrylOI3GMb2_8pwf_core7history5typesNtB5_14TimeSeriesData12duration_sec
FNDA:0,_RNvMs0_NtNtCslrylOI3GMb2_8pwf_core7history5typesNtB5_14TimeSeriesData16validate_lengths
FNDA:0,_RNvMs0_NtNtCslrylOI3GMb2_8pwf_core7history5typesNtB5_14TimeSeriesData3len
FNDA:0,_RNvMs0_NtNtCslrylOI3GMb2_8pwf_core7history5typesNtB5_14TimeSeriesData8is_empty
FNDA:0,_RNvMs1_NtNtCslrylOI3GMb2_8pwf_core7history5typesNtB5_10PoolConfig16length_in_meters
FNDA:0,_RNvMs1_NtNtCslrylOI3GMb2_8pwf_core7history5typesNtB5_10PoolConfig8pool_25m
FNDA:0,_RNvMs1_NtNtCslrylOI3GMb2_8pwf_core7history5typesNtB5_10PoolConfig8pool_50m
FNDA:0,_RNvMs1_NtNtCslrylOI3GMb2_8pwf_core7history5typesNtB5_10PoolConfig9pool_25yd
FNDA:0,_RNvMs2_NtNtCslrylOI3GMb2_8pwf_core7history5typesNtB5_14SwimmingLength14validate_swolf
FNDA:0,_RNvMs2_NtNtCslrylOI3GMb2_8pwf_core7history5typesNtB5_14SwimmingLength15calculate_swolf
FNDA:0,_RNvMs3_NtNtCslrylOI3GMb2_8pwf_core7history5typesNtB5_15SwimmingSetData19calculate_avg_swolf
FNDA:0,_RNvMs3_NtNtCslrylOI3GMb2_8pwf_core7history5typesNtB5_15SwimmingSetData20count_active_lengths
FNDA:3,_RNvXs_NtNtCslrylOI3GMb2_8pwf_core7history5typesNtB4_5UnitsNtNtCs3XFJfFEDSOQ_4core7default7Default7default
FNF:18
FNH:1
DA:24,0
DA:25,0
DA:26,0
DA:52,3
DA:53,3
DA:54,3
DA:55,3
DA:56,3
DA:57,3
DA:664,0
DA:665,0
DA:682,0
DA:683,0
DA:684,0
DA:685,0
DA:686,0
DA:687,0
DA:688,0
DA:689,0
DA:690,0
DA:691,0
DA:692,0
DA:693,0
DA:694,0
DA:695,0
DA:696,0
DA:697,0
DA:698,0
DA:699,0
DA:700,0
DA:701,0
DA:704,0
DA:705,0
DA:706,0
DA:707,0
DA:708,0
DA:709,0
DA:710,0
DA:711,0
DA:713,0
DA:714,0
DA:717,0
DA:718,0
DA:719,0
DA:722,0
DA:723,0
DA:724,0
DA:728,0
DA:729,0
DA:730,0
DA:731,0
DA:732,0
DA:733,0
DA:734,0
DA:735,0
DA:933,0
DA:934,0
DA:935,0
DA:936,0
DA:938,0
DA:941,0
DA:942,0
DA:943,0
DA:944,0
DA:945,0
DA:946,0
DA:949,0
DA:950,0
DA:951,0
DA:952,0
DA:953,0
DA:954,0
DA:957,0
DA:958,0
DA:959,0
DA:960,0
DA:961,0
DA:962,0
DA:999,0
DA:1000,0
DA:1001,0
DA:1004,0
DA:1005,0
DA:1006,0
DA:1007,0
DA:1009,0
DA:1042,0
DA:1043,0
DA:1044,0
DA:1045,0
DA:1047,0
DA:1048,0
DA:1049,0
DA:1050,0
DA:1051,0
DA:1053,0
DA:1054,0
DA:1055,0
DA:1057,0
DA:1058,0
DA:1059,0
DA:1062,0
DA:1063,0
DA:1064,0
DA:1065,0
DA:1066,0
DA:1067,0
BRF:0
BRH:0
LF:111
LH:6
end_of_record
SF:/home/nitro/Projects/pwf/crates/pwf-core/src/plan/resolver.rs
FN:78,_RNCNCNvNtNtCslrylOI3GMb2_8pwf_core4plan8resolver16resolve_exercises3_00B9_
FN:118,_RNCNvNtNtCslrylOI3GMb2_8pwf_core4plan8resolver11resolve_day0B7_
FN:126,_RNCNvNtNtCslrylOI3GMb2_8pwf_core4plan8resolver11resolve_days_0B7_
FN:37,_RNCNvNtNtCslrylOI3GMb2_8pwf_core4plan8resolver16resolve_exercise0B7_
FN:59,_RNCNvNtNtCslrylOI3GMb2_8pwf_core4plan8resolver16resolve_exercises0_0B7_
FN:61,_RNCNvNtNtCslrylOI3GMb2_8pwf_core4plan8resolver16resolve_exercises1_0B7_
FN:65,_RNCNvNtNtCslrylOI3GMb2_8pwf_core4plan8resolver16resolve_exercises2_0B7_
FN:74,_RNCNvNtNtCslrylOI3GMb2_8pwf_core4plan8resolver16resolve_exercises3_0B7_
FN:45,_RNCNvNtNtCslrylOI3GMb2_8pwf_core4plan8resolver16resolve_exercises_0B7_
FNDA:0,_RNCNCNvNtNtCslrylOI3GMb2_8pwf_core4plan8resolver16resolve_exercises3_00B9_
FNDA:0,_RNCNvNtNtCslrylOI3GMb2_8pwf_core4plan8resolver11resolve_day0B7_
FNDA:0,_RNCNvNtNtCslrylOI3GMb2_8pwf_core4plan8resolver11resolve_days_0B7_
FNDA:0,_RNCNvNtNtCslrylOI3GMb2_8pwf_core4plan8resolver16resolve_exercise0B7_
FNDA:0,_RNCNvNtNtCslrylOI3GMb2_8pwf_core4plan8resolver16resolve_exercises0_0B7_
FNDA:0,_RNCNvNtNtCslrylOI3GMb2_8pwf_core4plan8resolver16resolve_exercises1_0B7_
FNDA:0,_RNCNvNtNtCslrylOI3GMb2_8pwf_core4plan8resolver16resolve_exercises2_0B7_
FNDA:0,_RNCNvNtNtCslrylOI3GMb2_8pwf_core4plan8resolver16resolve_exercises3_0B7_
FNDA:0,_RNCNvNtNtCslrylOI3GMb2_8pwf_core4plan8resolver16resolve_exercises_0B7_
FNF:9
FNH:0
DA:37,0
DA:45,0
DA:59,0
DA:61,0
DA:65,0
DA:74,0
DA:75,0
DA:76,0
DA:77,0
DA:78,0
DA:79,0
DA:80,0
DA:81,0
DA:82,0
DA:83,0
DA:84,0
DA:85,0
DA:86,0
DA:87,0
DA:88,0
DA:89,0
DA:90,0
DA:91,0
DA:92,0
DA:93,0
DA:94,0
DA:95,0
DA:96,0
DA:118,0
DA:126,0
BRF:0
BRH:0
LF:31
LH:0
end_of_record
SF:/home/nitro/Projects/pwf/crates/pwf-core/src/plan/validator.rs
FN:1173,_RNCNvNtNtCslrylOI3GMb2_8pwf_core4plan9validator20calculate_statistics0B7_
FN:964,_RNCNvNtNtCslrylOI3GMb2_8pwf_core4plan9validator25validate_exercise_library0B7_
FN:1110,_RNCNvNtNtCslrylOI3GMb2_8pwf_core4plan9validator26validate_workout_templates0B7_
FN:164,_RNCNvNtNtCslrylOI3GMb2_8pwf_core4plan9validator8validate0B7_
FN:315,_RNCNvNtNtCslrylOI3GMb2_8pwf_core4plan9validator8validates0_0B7_
FN:388,_RNCNvNtNtCslrylOI3GMb2_8pwf_core4plan9validator8validates1_0B7_
FN:251,_RNCNvNtNtCslrylOI3GMb2_8pwf_core4plan9validator8validates_0B7_
FNDA:0,_RNCNvNtNtCslrylOI3GMb2_8pwf_core4plan9validator20calculate_statistics0B7_
FNDA:0,_RNCNvNtNtCslrylOI3GMb2_8pwf_core4plan9validator25validate_exercise_library0B7_
FNDA:0,_RNCNvNtNtCslrylOI3GMb2_8pwf_core4plan9validator26validate_workout_templates0B7_
FNDA:0,_RNCNvNtNtCslrylOI3GMb2_8pwf_core4plan9validator8validate0B7_
FNDA:0,_RNCNvNtNtCslrylOI3GMb2_8pwf_core4plan9validator8validates0_0B7_
FNDA:0,_RNCNvNtNtCslrylOI3GMb2_8pwf_core4plan9validator8validates1_0B7_
FNDA:0,_RNCNvNtNtCslrylOI3GMb2_8pwf_core4plan9validator8validates_0B7_
FNF:7
FNH:0
DA:164,0
DA:251,0
DA:315,0
DA:388,0
DA:964,0
DA:1110,0
DA:1173,0
BRF:0
BRH:0
LF:7
LH:0
end_of_record
SF:/home/nitro/Projects/pwf/crates/pwf-core/src/types.rs
FN:21,_RNvXNtCslrylOI3GMb2_8pwf_core5typesNtB2_8ModalityNtNtCs3XFJfFEDSOQ_4core3fmt7Display3fmt
FN:76,_RNvXs0_NtCslrylOI3GMb2_8pwf_core5typesNtB5_10WeightUnitNtNtCs3XFJfFEDSOQ_4core3fmt7Display3fmt
FN:97,_RNvXs1_NtCslrylOI3GMb2_8pwf_core5typesNtB5_12DistanceUnitNtNtCs3XFJfFEDSOQ_4core3fmt7Display3fmt
FN:122,_RNvXs2_NtCslrylOI3GMb2_8pwf_core5typesNtB5_5SportNtNtCs3XFJfFEDSOQ_4core3fmt7Display3fmt
FN:138,_RNvXs3_NtCslrylOI3GMb2_8pwf_core5typesNtB5_5SportNtNtNtCs3XFJfFEDSOQ_4core3str6traits7FromStr8from_str
FN:38,_RNvXs_NtCslrylOI3GMb2_8pwf_core5typesNtB4_8ModalityNtNtNtCs3XFJfFEDSOQ_4core3str6traits7FromStr8from_str
FNDA:0,_RNvXNtCslrylOI3GMb2_8pwf_core5typesNtB2_8ModalityNtNtCs3XFJfFEDSOQ_4core3fmt7Display3fmt
FNDA:0,_RNvXs0_NtCslrylOI3GMb2_8pwf_core5typesNtB5_10WeightUnitNtNtCs3XFJfFEDSOQ_4core3fmt7Display3fmt
FNDA:0,_RNvXs1_NtCslrylOI3GMb2_8pwf_core5typesNtB5_12DistanceUnitNtNtCs3XFJfFEDSOQ_4core3fmt7Display3fmt
FNDA:0,_RNvXs2_NtCslrylOI3GMb2_8pwf_core5typesNtB5_5SportNtNtCs3XFJfFEDSOQ_4core3fmt7Display3fmt
FNDA:0,_RNvXs3_NtCslrylOI3GMb2_8pwf_core5typesNtB5_5SportNtNtNtCs3XFJfFEDSOQ_4core3str6traits7FromStr8from_str
FNDA:0,_RNvXs_NtCslrylOI3GMb2_8pwf_core5typesNtB4_8ModalityNtNtNtCs3XFJfFEDSOQ_4core3str6traits7FromStr8from_str
FNF:6
FNH:0
DA:21,0
DA:22,0
DA:23,0
DA:24,0
DA:25,0
DA:26,0
DA:27,0
DA:28,0
DA:29,0
DA:30,0
DA:32,0
DA:38,0
DA:39,0
DA:40,0
DA:41,0
DA:42,0
DA:43,0
DA:44,0
DA:45,0
DA:46,0
DA:47,0
DA:48,0
DA:50,0
DA:76,0
DA:77,0
DA:78,0
DA:79,0
DA:81,0
DA:97,0
DA:98,0
DA:99,0
DA:100,0
DA:101,0
DA:102,0
DA:103,0
DA:105,0
DA:122,0
DA:123,0
DA:124,0
DA:125,0
DA:126,0
DA:127,0
DA:128,0
DA:129,0
DA:130,0
DA:132,0
DA:138,0
DA:139,0
DA:140,0
DA:141,0
DA:142,0
DA:143,0
DA:144,0
DA:145,0
DA:146,0
DA:147,0
DA:149,0
BRF:0
BRH:0
LF:57
LH:0
end_of_record